
motCtrl.elf:     file format elf32-littlearm

Sections:
Idx Name          Size      VMA       LMA       File off  Algn
  0 .isr_vector   000001f8  08000000  08000000  00001000  2**0
                  CONTENTS, ALLOC, LOAD, READONLY, DATA
  1 .text         00003640  080001f8  080001f8  000011f8  2**3
                  CONTENTS, ALLOC, LOAD, READONLY, CODE
  2 .rodata       00000038  08003838  08003838  00004838  2**2
                  CONTENTS, ALLOC, LOAD, READONLY, DATA
  3 .ARM.extab    00000000  08003870  08003870  00004878  2**0
                  CONTENTS, READONLY
  4 .ARM          00000000  08003870  08003870  00004878  2**0
                  CONTENTS, READONLY
  5 .preinit_array 00000000  08003870  08003878  00004878  2**0
                  CONTENTS, ALLOC, LOAD, DATA
  6 .init_array   00000004  08003870  08003870  00004870  2**2
                  CONTENTS, ALLOC, LOAD, READONLY, DATA
  7 .fini_array   00000004  08003874  08003874  00004874  2**2
                  CONTENTS, ALLOC, LOAD, READONLY, DATA
  8 .data         00000000  20000000  20000000  00004878  2**0
                  CONTENTS, ALLOC, LOAD, DATA
  9 .bss          000002ec  20000000  08003878  00005000  2**2
                  ALLOC
 10 ._user_heap_stack 00000604  200002ec  08003878  000052ec  2**0
                  ALLOC
 11 .ARM.attributes 0000002e  00000000  00000000  00004878  2**0
                  CONTENTS, READONLY
 12 .debug_info   00005ae6  00000000  00000000  000048a6  2**0
                  CONTENTS, READONLY, DEBUGGING, OCTETS
 13 .debug_abbrev 00001bfa  00000000  00000000  0000a38c  2**0
                  CONTENTS, READONLY, DEBUGGING, OCTETS
 14 .debug_aranges 00000768  00000000  00000000  0000bf88  2**3
                  CONTENTS, READONLY, DEBUGGING, OCTETS
 15 .debug_rnglists 0000055b  00000000  00000000  0000c6f0  2**0
                  CONTENTS, READONLY, DEBUGGING, OCTETS
 16 .debug_macro  00027151  00000000  00000000  0000cc4b  2**0
                  CONTENTS, READONLY, DEBUGGING, OCTETS
 17 .debug_line   0000a5e5  00000000  00000000  00033d9c  2**0
                  CONTENTS, READONLY, DEBUGGING, OCTETS
 18 .debug_str    000ed36b  00000000  00000000  0003e381  2**0
                  CONTENTS, READONLY, DEBUGGING, OCTETS
 19 .comment      00000043  00000000  00000000  0012b6ec  2**0
                  CONTENTS, READONLY
 20 .debug_frame  000018fc  00000000  00000000  0012b730  2**2
                  CONTENTS, READONLY, DEBUGGING, OCTETS
 21 .debug_line_str 00000055  00000000  00000000  0012d02c  2**0
                  CONTENTS, READONLY, DEBUGGING, OCTETS

Disassembly of section .text:

080001f8 <__do_global_dtors_aux>:
 80001f8:	b510      	push	{r4, lr}
 80001fa:	4c05      	ldr	r4, [pc, #20]	@ (8000210 <__do_global_dtors_aux+0x18>)
 80001fc:	7823      	ldrb	r3, [r4, #0]
 80001fe:	b933      	cbnz	r3, 800020e <__do_global_dtors_aux+0x16>
 8000200:	4b04      	ldr	r3, [pc, #16]	@ (8000214 <__do_global_dtors_aux+0x1c>)
 8000202:	b113      	cbz	r3, 800020a <__do_global_dtors_aux+0x12>
 8000204:	4804      	ldr	r0, [pc, #16]	@ (8000218 <__do_global_dtors_aux+0x20>)
 8000206:	f3af 8000 	nop.w
 800020a:	2301      	movs	r3, #1
 800020c:	7023      	strb	r3, [r4, #0]
 800020e:	bd10      	pop	{r4, pc}
 8000210:	20000000 	.word	0x20000000
 8000214:	00000000 	.word	0x00000000
 8000218:	08003820 	.word	0x08003820

0800021c <frame_dummy>:
 800021c:	b508      	push	{r3, lr}
 800021e:	4b03      	ldr	r3, [pc, #12]	@ (800022c <frame_dummy+0x10>)
 8000220:	b11b      	cbz	r3, 800022a <frame_dummy+0xe>
 8000222:	4903      	ldr	r1, [pc, #12]	@ (8000230 <frame_dummy+0x14>)
 8000224:	4803      	ldr	r0, [pc, #12]	@ (8000234 <frame_dummy+0x18>)
 8000226:	f3af 8000 	nop.w
 800022a:	bd08      	pop	{r3, pc}
 800022c:	00000000 	.word	0x00000000
 8000230:	20000004 	.word	0x20000004
 8000234:	08003820 	.word	0x08003820

08000238 <hallsens_update_hallSeq>:
#define HALLSENS_CAL_DUTY_CNTR_ALIGNED_PWM(duty)    (HALLSENS_DUTY_MAX - (duty))

typHall_Handle vHallSens_handler;

void hallsens_update_hallSeq(void)
{
 8000238:	b580      	push	{r7, lr}
 800023a:	af00      	add	r7, sp, #0
    vHallSens_handler.hallPin_state[HALLSENS_U_IDX] = gpio_read_pin(vHallSens_handler.port[HALLSENS_U_IDX], vHallSens_handler.pin[HALLSENS_U_IDX]);
 800023c:	4b1d      	ldr	r3, [pc, #116]	@ (80002b4 <hallsens_update_hallSeq+0x7c>)
 800023e:	681b      	ldr	r3, [r3, #0]
 8000240:	4a1c      	ldr	r2, [pc, #112]	@ (80002b4 <hallsens_update_hallSeq+0x7c>)
 8000242:	7b12      	ldrb	r2, [r2, #12]
 8000244:	4611      	mov	r1, r2
 8000246:	4618      	mov	r0, r3
 8000248:	f001 fe96 	bl	8001f78 <gpio_read_pin>
 800024c:	4603      	mov	r3, r0
 800024e:	461a      	mov	r2, r3
 8000250:	4b18      	ldr	r3, [pc, #96]	@ (80002b4 <hallsens_update_hallSeq+0x7c>)
 8000252:	73da      	strb	r2, [r3, #15]
    vHallSens_handler.hallPin_state[HALLSENS_V_IDX] = gpio_read_pin(vHallSens_handler.port[HALLSENS_V_IDX], vHallSens_handler.pin[HALLSENS_V_IDX]);
 8000254:	4b17      	ldr	r3, [pc, #92]	@ (80002b4 <hallsens_update_hallSeq+0x7c>)
 8000256:	685b      	ldr	r3, [r3, #4]
 8000258:	4a16      	ldr	r2, [pc, #88]	@ (80002b4 <hallsens_update_hallSeq+0x7c>)
 800025a:	7b52      	ldrb	r2, [r2, #13]
 800025c:	4611      	mov	r1, r2
 800025e:	4618      	mov	r0, r3
 8000260:	f001 fe8a 	bl	8001f78 <gpio_read_pin>
 8000264:	4603      	mov	r3, r0
 8000266:	461a      	mov	r2, r3
 8000268:	4b12      	ldr	r3, [pc, #72]	@ (80002b4 <hallsens_update_hallSeq+0x7c>)
 800026a:	741a      	strb	r2, [r3, #16]
    vHallSens_handler.hallPin_state[HALLSENS_W_IDX] = gpio_read_pin(vHallSens_handler.port[HALLSENS_W_IDX], vHallSens_handler.pin[HALLSENS_W_IDX]);
 800026c:	4b11      	ldr	r3, [pc, #68]	@ (80002b4 <hallsens_update_hallSeq+0x7c>)
 800026e:	689b      	ldr	r3, [r3, #8]
 8000270:	4a10      	ldr	r2, [pc, #64]	@ (80002b4 <hallsens_update_hallSeq+0x7c>)
 8000272:	7b92      	ldrb	r2, [r2, #14]
 8000274:	4611      	mov	r1, r2
 8000276:	4618      	mov	r0, r3
 8000278:	f001 fe7e 	bl	8001f78 <gpio_read_pin>
 800027c:	4603      	mov	r3, r0
 800027e:	461a      	mov	r2, r3
 8000280:	4b0c      	ldr	r3, [pc, #48]	@ (80002b4 <hallsens_update_hallSeq+0x7c>)
 8000282:	745a      	strb	r2, [r3, #17]

    vHallSens_handler.curr_hallSum = HALLSENS_CAL_SUM(vHallSens_handler.hallPin_state[HALLSENS_U_IDX],
 8000284:	4b0b      	ldr	r3, [pc, #44]	@ (80002b4 <hallsens_update_hallSeq+0x7c>)
 8000286:	7bdb      	ldrb	r3, [r3, #15]
 8000288:	b25b      	sxtb	r3, r3
 800028a:	009b      	lsls	r3, r3, #2
 800028c:	b25a      	sxtb	r2, r3
 800028e:	4b09      	ldr	r3, [pc, #36]	@ (80002b4 <hallsens_update_hallSeq+0x7c>)
 8000290:	7c1b      	ldrb	r3, [r3, #16]
 8000292:	b25b      	sxtb	r3, r3
 8000294:	005b      	lsls	r3, r3, #1
 8000296:	b25b      	sxtb	r3, r3
 8000298:	4313      	orrs	r3, r2
 800029a:	b25a      	sxtb	r2, r3
 800029c:	4b05      	ldr	r3, [pc, #20]	@ (80002b4 <hallsens_update_hallSeq+0x7c>)
 800029e:	7c5b      	ldrb	r3, [r3, #17]
 80002a0:	b25b      	sxtb	r3, r3
 80002a2:	4313      	orrs	r3, r2
 80002a4:	b25b      	sxtb	r3, r3
 80002a6:	b2da      	uxtb	r2, r3
 80002a8:	4b02      	ldr	r3, [pc, #8]	@ (80002b4 <hallsens_update_hallSeq+0x7c>)
 80002aa:	f883 2020 	strb.w	r2, [r3, #32]
                                                      vHallSens_handler.hallPin_state[HALLSENS_V_IDX],
                                                      vHallSens_handler.hallPin_state[HALLSENS_W_IDX]);
}
 80002ae:	bf00      	nop
 80002b0:	bd80      	pop	{r7, pc}
 80002b2:	bf00      	nop
 80002b4:	2000001c 	.word	0x2000001c

080002b8 <hallsens_init>:

void hallsens_init(void)
{
 80002b8:	b580      	push	{r7, lr}
 80002ba:	af00      	add	r7, sp, #0
    vHallSens_handler.port[HALLSENS_U_IDX] = HALL_U_Port;
 80002bc:	4b25      	ldr	r3, [pc, #148]	@ (8000354 <hallsens_init+0x9c>)
 80002be:	4a26      	ldr	r2, [pc, #152]	@ (8000358 <hallsens_init+0xa0>)
 80002c0:	601a      	str	r2, [r3, #0]
    vHallSens_handler.pin[HALLSENS_U_IDX] = 0;
 80002c2:	4b24      	ldr	r3, [pc, #144]	@ (8000354 <hallsens_init+0x9c>)
 80002c4:	2200      	movs	r2, #0
 80002c6:	731a      	strb	r2, [r3, #12]
    vHallSens_handler.port[HALLSENS_V_IDX] = HALL_V_Port;
 80002c8:	4b22      	ldr	r3, [pc, #136]	@ (8000354 <hallsens_init+0x9c>)
 80002ca:	4a23      	ldr	r2, [pc, #140]	@ (8000358 <hallsens_init+0xa0>)
 80002cc:	605a      	str	r2, [r3, #4]
    vHallSens_handler.pin[HALLSENS_V_IDX] = 1;
 80002ce:	4b21      	ldr	r3, [pc, #132]	@ (8000354 <hallsens_init+0x9c>)
 80002d0:	2201      	movs	r2, #1
 80002d2:	735a      	strb	r2, [r3, #13]
    vHallSens_handler.port[HALLSENS_W_IDX] = HALL_W_Port;
 80002d4:	4b1f      	ldr	r3, [pc, #124]	@ (8000354 <hallsens_init+0x9c>)
 80002d6:	4a20      	ldr	r2, [pc, #128]	@ (8000358 <hallsens_init+0xa0>)
 80002d8:	609a      	str	r2, [r3, #8]
    vHallSens_handler.pin[HALLSENS_W_IDX] = 2;
 80002da:	4b1e      	ldr	r3, [pc, #120]	@ (8000354 <hallsens_init+0x9c>)
 80002dc:	2202      	movs	r2, #2
 80002de:	739a      	strb	r2, [r3, #14]

    vHallSens_handler.hallPin_state[HALLSENS_U_IDX] = 0;
 80002e0:	4b1c      	ldr	r3, [pc, #112]	@ (8000354 <hallsens_init+0x9c>)
 80002e2:	2200      	movs	r2, #0
 80002e4:	73da      	strb	r2, [r3, #15]
    vHallSens_handler.hallPin_state[HALLSENS_V_IDX] = 0;
 80002e6:	4b1b      	ldr	r3, [pc, #108]	@ (8000354 <hallsens_init+0x9c>)
 80002e8:	2200      	movs	r2, #0
 80002ea:	741a      	strb	r2, [r3, #16]
    vHallSens_handler.hallPin_state[HALLSENS_W_IDX] = 0;
 80002ec:	4b19      	ldr	r3, [pc, #100]	@ (8000354 <hallsens_init+0x9c>)
 80002ee:	2200      	movs	r2, #0
 80002f0:	745a      	strb	r2, [r3, #17]
    vHallSens_handler.dutyVal[HALLSENS_U_IDX] = 0;
 80002f2:	4b18      	ldr	r3, [pc, #96]	@ (8000354 <hallsens_init+0x9c>)
 80002f4:	2200      	movs	r2, #0
 80002f6:	615a      	str	r2, [r3, #20]
    vHallSens_handler.dutyVal[HALLSENS_V_IDX] = 0;
 80002f8:	4b16      	ldr	r3, [pc, #88]	@ (8000354 <hallsens_init+0x9c>)
 80002fa:	2200      	movs	r2, #0
 80002fc:	619a      	str	r2, [r3, #24]
    vHallSens_handler.dutyVal[HALLSENS_W_IDX] = 0;
 80002fe:	4b15      	ldr	r3, [pc, #84]	@ (8000354 <hallsens_init+0x9c>)
 8000300:	2200      	movs	r2, #0
 8000302:	61da      	str	r2, [r3, #28]

    vHallSens_handler.curr_hallSum = 0;
 8000304:	4b13      	ldr	r3, [pc, #76]	@ (8000354 <hallsens_init+0x9c>)
 8000306:	2200      	movs	r2, #0
 8000308:	f883 2020 	strb.w	r2, [r3, #32]
    vHallSens_handler.prev_hallSum = 0;
 800030c:	4b11      	ldr	r3, [pc, #68]	@ (8000354 <hallsens_init+0x9c>)
 800030e:	2200      	movs	r2, #0
 8000310:	f883 2021 	strb.w	r2, [r3, #33]	@ 0x21

    vHallSens_handler.prevTick = 0;
 8000314:	4b0f      	ldr	r3, [pc, #60]	@ (8000354 <hallsens_init+0x9c>)
 8000316:	2200      	movs	r2, #0
 8000318:	625a      	str	r2, [r3, #36]	@ 0x24
    vHallSens_handler.currTick = 0;
 800031a:	4b0e      	ldr	r3, [pc, #56]	@ (8000354 <hallsens_init+0x9c>)
 800031c:	2200      	movs	r2, #0
 800031e:	629a      	str	r2, [r3, #40]	@ 0x28
    vHallSens_handler.deltaTick = 0.0f;
 8000320:	4b0c      	ldr	r3, [pc, #48]	@ (8000354 <hallsens_init+0x9c>)
 8000322:	2200      	movs	r2, #0
 8000324:	62da      	str	r2, [r3, #44]	@ 0x2c
    vHallSens_handler.rawMtrRPM = 0;
 8000326:	4b0b      	ldr	r3, [pc, #44]	@ (8000354 <hallsens_init+0x9c>)
 8000328:	f04f 0200 	mov.w	r2, #0
 800032c:	631a      	str	r2, [r3, #48]	@ 0x30
    vHallSens_handler.fin_MtrRPM = 0;
 800032e:	4b09      	ldr	r3, [pc, #36]	@ (8000354 <hallsens_init+0x9c>)
 8000330:	f04f 0200 	mov.w	r2, #0
 8000334:	635a      	str	r2, [r3, #52]	@ 0x34
    vHallSens_handler.old_rawMtrRPM = 0;
 8000336:	4b07      	ldr	r3, [pc, #28]	@ (8000354 <hallsens_init+0x9c>)
 8000338:	f04f 0200 	mov.w	r2, #0
 800033c:	639a      	str	r2, [r3, #56]	@ 0x38
    vHallSens_handler.zeroSpd_cnt = 0;
 800033e:	4b05      	ldr	r3, [pc, #20]	@ (8000354 <hallsens_init+0x9c>)
 8000340:	2200      	movs	r2, #0
 8000342:	879a      	strh	r2, [r3, #60]	@ 0x3c

    hallsens_update_hallSeq();
 8000344:	f7ff ff78 	bl	8000238 <hallsens_update_hallSeq>

    vHallSens_handler.is_initialized = true;
 8000348:	4b02      	ldr	r3, [pc, #8]	@ (8000354 <hallsens_init+0x9c>)
 800034a:	2201      	movs	r2, #1
 800034c:	f883 203e 	strb.w	r2, [r3, #62]	@ 0x3e
}
 8000350:	bf00      	nop
 8000352:	bd80      	pop	{r7, pc}
 8000354:	2000001c 	.word	0x2000001c
 8000358:	40020c00 	.word	0x40020c00

0800035c <hallsens_set_PWMduty>:

inline static void hallsens_set_PWMduty(typMtrPhase phases[])
{
 800035c:	b580      	push	{r7, lr}
 800035e:	b086      	sub	sp, #24
 8000360:	af00      	add	r7, sp, #0
 8000362:	6078      	str	r0, [r7, #4]
    uint8_t idx;
    uint32_t tempCCR_refVal = mtrCtrl_getFinalCCR_refVal();
 8000364:	f000 fae0 	bl	8000928 <mtrCtrl_getFinalCCR_refVal>
 8000368:	6138      	str	r0, [r7, #16]
    typTim_sigLineNum tempLineNum;

    // 1. 정지 신호인지 확인

    if (tempCCR_refVal == 0 || mtrCtrl_getCtrlContinue() == false)
 800036a:	693b      	ldr	r3, [r7, #16]
 800036c:	2b00      	cmp	r3, #0
 800036e:	d007      	beq.n	8000380 <hallsens_set_PWMduty+0x24>
 8000370:	f000 fb2a 	bl	80009c8 <mtrCtrl_getCtrlContinue>
 8000374:	4603      	mov	r3, r0
 8000376:	f083 0301 	eor.w	r3, r3, #1
 800037a:	b2db      	uxtb	r3, r3
 800037c:	2b00      	cmp	r3, #0
 800037e:	d007      	beq.n	8000390 <hallsens_set_PWMduty+0x34>
    {
		tim_Pwm1_Mute_channel(TIM_SELECT_OUTPUT_FLG);
 8000380:	2000      	movs	r0, #0
 8000382:	f002 fd47 	bl	8002e14 <tim_Pwm1_Mute_channel>
		tim_Pwm1_setCmpVal(TIM_SELECT_OUTPUT_FLG, 0);
 8000386:	2100      	movs	r1, #0
 8000388:	2000      	movs	r0, #0
 800038a:	f002 fdf7 	bl	8002f7c <tim_Pwm1_setCmpVal>
		return;
 800038e:	e04b      	b.n	8000428 <hallsens_set_PWMduty+0xcc>
	}

    // 2. 센터얼라인드 모드의 듀티값과 파형의 전력값이 반비례임을 고려
    vHallSens_handler.dutyVal[HALLSENS_U_IDX] = HALLSENS_CAL_DUTY_CNTR_ALIGNED_PWM(tempCCR_refVal);
 8000390:	693a      	ldr	r2, [r7, #16]
 8000392:	f241 5317 	movw	r3, #5399	@ 0x1517
 8000396:	1a9b      	subs	r3, r3, r2
 8000398:	4a25      	ldr	r2, [pc, #148]	@ (8000430 <hallsens_set_PWMduty+0xd4>)
 800039a:	6153      	str	r3, [r2, #20]
    vHallSens_handler.dutyVal[HALLSENS_V_IDX] = HALLSENS_CAL_DUTY_CNTR_ALIGNED_PWM(tempCCR_refVal);
 800039c:	693a      	ldr	r2, [r7, #16]
 800039e:	f241 5317 	movw	r3, #5399	@ 0x1517
 80003a2:	1a9b      	subs	r3, r3, r2
 80003a4:	4a22      	ldr	r2, [pc, #136]	@ (8000430 <hallsens_set_PWMduty+0xd4>)
 80003a6:	6193      	str	r3, [r2, #24]
    vHallSens_handler.dutyVal[HALLSENS_W_IDX] = HALLSENS_CAL_DUTY_CNTR_ALIGNED_PWM(tempCCR_refVal);
 80003a8:	693a      	ldr	r2, [r7, #16]
 80003aa:	f241 5317 	movw	r3, #5399	@ 0x1517
 80003ae:	1a9b      	subs	r3, r3, r2
 80003b0:	4a1f      	ldr	r2, [pc, #124]	@ (8000430 <hallsens_set_PWMduty+0xd4>)
 80003b2:	61d3      	str	r3, [r2, #28]

    // 3. 각 상의 상태에 따른 제어
	for (idx = 0; idx < HALLSENS_PH_NUM; idx++)
 80003b4:	2300      	movs	r3, #0
 80003b6:	75fb      	strb	r3, [r7, #23]
 80003b8:	e033      	b.n	8000422 <hallsens_set_PWMduty+0xc6>
	{
        tempLineNum = idx + 1;
 80003ba:	7dfb      	ldrb	r3, [r7, #23]
 80003bc:	3301      	adds	r3, #1
 80003be:	73fb      	strb	r3, [r7, #15]

		if (phases[idx] == MTR_DIR_FWD) // (1) 전압 인가 상
 80003c0:	7dfb      	ldrb	r3, [r7, #23]
 80003c2:	687a      	ldr	r2, [r7, #4]
 80003c4:	4413      	add	r3, r2
 80003c6:	f993 3000 	ldrsb.w	r3, [r3]
 80003ca:	2b01      	cmp	r3, #1
 80003cc:	d10f      	bne.n	80003ee <hallsens_set_PWMduty+0x92>
		{
			// 상측 MOSFET의 게이트에 PWM 파형을 출력
			tim_Pwm1_setCmpVal(tempLineNum, vHallSens_handler.dutyVal[idx]);
 80003ce:	7dfb      	ldrb	r3, [r7, #23]
 80003d0:	4a17      	ldr	r2, [pc, #92]	@ (8000430 <hallsens_set_PWMduty+0xd4>)
 80003d2:	3304      	adds	r3, #4
 80003d4:	009b      	lsls	r3, r3, #2
 80003d6:	4413      	add	r3, r2
 80003d8:	685a      	ldr	r2, [r3, #4]
 80003da:	7bfb      	ldrb	r3, [r7, #15]
 80003dc:	4611      	mov	r1, r2
 80003de:	4618      	mov	r0, r3
 80003e0:	f002 fdcc 	bl	8002f7c <tim_Pwm1_setCmpVal>
			tim_Pwm1_Unmute_channel(tempLineNum);
 80003e4:	7bfb      	ldrb	r3, [r7, #15]
 80003e6:	4618      	mov	r0, r3
 80003e8:	f002 fd7a 	bl	8002ee0 <tim_Pwm1_Unmute_channel>
 80003ec:	e016      	b.n	800041c <hallsens_set_PWMduty+0xc0>
		}
		else if (phases[idx] == MTR_DIR_REV) // (-1) 전류가 빠져나가는 상 (GND)
 80003ee:	7dfb      	ldrb	r3, [r7, #23]
 80003f0:	687a      	ldr	r2, [r7, #4]
 80003f2:	4413      	add	r3, r2
 80003f4:	f993 3000 	ldrsb.w	r3, [r3]
 80003f8:	f1b3 3fff 	cmp.w	r3, #4294967295
 80003fc:	d10a      	bne.n	8000414 <hallsens_set_PWMduty+0xb8>
		{
			// 하측 MOSFET만 켜지게 함
			tim_Pwm1_setCmpVal(tempLineNum, HALLSENS_DUTY_MAX);
 80003fe:	7bfb      	ldrb	r3, [r7, #15]
 8000400:	f241 5117 	movw	r1, #5399	@ 0x1517
 8000404:	4618      	mov	r0, r3
 8000406:	f002 fdb9 	bl	8002f7c <tim_Pwm1_setCmpVal>
			tim_Pwm1_Unmute_channel(tempLineNum);
 800040a:	7bfb      	ldrb	r3, [r7, #15]
 800040c:	4618      	mov	r0, r3
 800040e:	f002 fd67 	bl	8002ee0 <tim_Pwm1_Unmute_channel>
 8000412:	e003      	b.n	800041c <hallsens_set_PWMduty+0xc0>
		}
		else // (0) 플로팅 상 (STP)
		{
			// CCR 값과 상관없이 출력을 아예 차단 (floating)
			tim_Pwm1_Mute_channel(tempLineNum);
 8000414:	7bfb      	ldrb	r3, [r7, #15]
 8000416:	4618      	mov	r0, r3
 8000418:	f002 fcfc 	bl	8002e14 <tim_Pwm1_Mute_channel>
	for (idx = 0; idx < HALLSENS_PH_NUM; idx++)
 800041c:	7dfb      	ldrb	r3, [r7, #23]
 800041e:	3301      	adds	r3, #1
 8000420:	75fb      	strb	r3, [r7, #23]
 8000422:	7dfb      	ldrb	r3, [r7, #23]
 8000424:	2b02      	cmp	r3, #2
 8000426:	d9c8      	bls.n	80003ba <hallsens_set_PWMduty+0x5e>
		}
	}
}
 8000428:	3718      	adds	r7, #24
 800042a:	46bd      	mov	sp, r7
 800042c:	bd80      	pop	{r7, pc}
 800042e:	bf00      	nop
 8000430:	2000001c 	.word	0x2000001c

08000434 <hallsens_setPhase_FWD>:

#if (UTILS_MOTOR_DIR == UTILS_MOTOR_DIR_CW)
inline static void hallsens_setPhase_FWD(void)
{
 8000434:	b580      	push	{r7, lr}
 8000436:	b082      	sub	sp, #8
 8000438:	af00      	add	r7, sp, #0
    typMtrPhase phases[HALLSENS_PH_NUM] = {0};
 800043a:	1d3b      	adds	r3, r7, #4
 800043c:	2100      	movs	r1, #0
 800043e:	460a      	mov	r2, r1
 8000440:	801a      	strh	r2, [r3, #0]
 8000442:	460a      	mov	r2, r1
 8000444:	709a      	strb	r2, [r3, #2]
    

    switch(vHallSens_handler.curr_hallSum)
 8000446:	4b27      	ldr	r3, [pc, #156]	@ (80004e4 <hallsens_setPhase_FWD+0xb0>)
 8000448:	f893 3020 	ldrb.w	r3, [r3, #32]
 800044c:	3b01      	subs	r3, #1
 800044e:	2b05      	cmp	r3, #5
 8000450:	d838      	bhi.n	80004c4 <hallsens_setPhase_FWD+0x90>
 8000452:	a201      	add	r2, pc, #4	@ (adr r2, 8000458 <hallsens_setPhase_FWD+0x24>)
 8000454:	f852 f023 	ldr.w	pc, [r2, r3, lsl #2]
 8000458:	0800049b 	.word	0x0800049b
 800045c:	080004b7 	.word	0x080004b7
 8000460:	080004a9 	.word	0x080004a9
 8000464:	0800047f 	.word	0x0800047f
 8000468:	0800048d 	.word	0x0800048d
 800046c:	08000471 	.word	0x08000471
    {
        case 6:  phases[HALLSENS_U_IDX] = MTR_DIR_STP; phases[HALLSENS_V_IDX] = MTR_DIR_REV; phases[HALLSENS_W_IDX] = MTR_DIR_FWD; break;
 8000470:	2300      	movs	r3, #0
 8000472:	713b      	strb	r3, [r7, #4]
 8000474:	23ff      	movs	r3, #255	@ 0xff
 8000476:	717b      	strb	r3, [r7, #5]
 8000478:	2301      	movs	r3, #1
 800047a:	71bb      	strb	r3, [r7, #6]
 800047c:	e029      	b.n	80004d2 <hallsens_setPhase_FWD+0x9e>
        case 4:  phases[HALLSENS_U_IDX] = MTR_DIR_REV; phases[HALLSENS_V_IDX] = MTR_DIR_STP; phases[HALLSENS_W_IDX] = MTR_DIR_FWD; break;
 800047e:	23ff      	movs	r3, #255	@ 0xff
 8000480:	713b      	strb	r3, [r7, #4]
 8000482:	2300      	movs	r3, #0
 8000484:	717b      	strb	r3, [r7, #5]
 8000486:	2301      	movs	r3, #1
 8000488:	71bb      	strb	r3, [r7, #6]
 800048a:	e022      	b.n	80004d2 <hallsens_setPhase_FWD+0x9e>
        case 5:  phases[HALLSENS_U_IDX] = MTR_DIR_REV; phases[HALLSENS_V_IDX] = MTR_DIR_FWD; phases[HALLSENS_W_IDX] = MTR_DIR_STP; break;
 800048c:	23ff      	movs	r3, #255	@ 0xff
 800048e:	713b      	strb	r3, [r7, #4]
 8000490:	2301      	movs	r3, #1
 8000492:	717b      	strb	r3, [r7, #5]
 8000494:	2300      	movs	r3, #0
 8000496:	71bb      	strb	r3, [r7, #6]
 8000498:	e01b      	b.n	80004d2 <hallsens_setPhase_FWD+0x9e>
        case 1:  phases[HALLSENS_U_IDX] = MTR_DIR_STP; phases[HALLSENS_V_IDX] = MTR_DIR_FWD; phases[HALLSENS_W_IDX] = MTR_DIR_REV; break;
 800049a:	2300      	movs	r3, #0
 800049c:	713b      	strb	r3, [r7, #4]
 800049e:	2301      	movs	r3, #1
 80004a0:	717b      	strb	r3, [r7, #5]
 80004a2:	23ff      	movs	r3, #255	@ 0xff
 80004a4:	71bb      	strb	r3, [r7, #6]
 80004a6:	e014      	b.n	80004d2 <hallsens_setPhase_FWD+0x9e>
        case 3:  phases[HALLSENS_U_IDX] = MTR_DIR_FWD; phases[HALLSENS_V_IDX] = MTR_DIR_STP; phases[HALLSENS_W_IDX] = MTR_DIR_REV; break;
 80004a8:	2301      	movs	r3, #1
 80004aa:	713b      	strb	r3, [r7, #4]
 80004ac:	2300      	movs	r3, #0
 80004ae:	717b      	strb	r3, [r7, #5]
 80004b0:	23ff      	movs	r3, #255	@ 0xff
 80004b2:	71bb      	strb	r3, [r7, #6]
 80004b4:	e00d      	b.n	80004d2 <hallsens_setPhase_FWD+0x9e>
        case 2:  phases[HALLSENS_U_IDX] = MTR_DIR_FWD; phases[HALLSENS_V_IDX] = MTR_DIR_REV; phases[HALLSENS_W_IDX] = MTR_DIR_STP; break;
 80004b6:	2301      	movs	r3, #1
 80004b8:	713b      	strb	r3, [r7, #4]
 80004ba:	23ff      	movs	r3, #255	@ 0xff
 80004bc:	717b      	strb	r3, [r7, #5]
 80004be:	2300      	movs	r3, #0
 80004c0:	71bb      	strb	r3, [r7, #6]
 80004c2:	e006      	b.n	80004d2 <hallsens_setPhase_FWD+0x9e>
        default: phases[HALLSENS_U_IDX] = MTR_DIR_STP; phases[HALLSENS_V_IDX] = MTR_DIR_STP; phases[HALLSENS_W_IDX] = MTR_DIR_STP; break;
 80004c4:	2300      	movs	r3, #0
 80004c6:	713b      	strb	r3, [r7, #4]
 80004c8:	2300      	movs	r3, #0
 80004ca:	717b      	strb	r3, [r7, #5]
 80004cc:	2300      	movs	r3, #0
 80004ce:	71bb      	strb	r3, [r7, #6]
 80004d0:	bf00      	nop
    }
    hallsens_set_PWMduty(phases);
 80004d2:	1d3b      	adds	r3, r7, #4
 80004d4:	4618      	mov	r0, r3
 80004d6:	f7ff ff41 	bl	800035c <hallsens_set_PWMduty>
}
 80004da:	bf00      	nop
 80004dc:	3708      	adds	r7, #8
 80004de:	46bd      	mov	sp, r7
 80004e0:	bd80      	pop	{r7, pc}
 80004e2:	bf00      	nop
 80004e4:	2000001c 	.word	0x2000001c

080004e8 <hallsens_update_swtPattern>:
    hallsens_set_PWMduty(phases);
}
#endif

void hallsens_update_swtPattern(void)
{
 80004e8:	b580      	push	{r7, lr}
 80004ea:	af00      	add	r7, sp, #0
	#if (UTILS_MOTOR_DIR == UTILS_MOTOR_DIR_CW)
		hallsens_setPhase_FWD();
 80004ec:	f7ff ffa2 	bl	8000434 <hallsens_setPhase_FWD>
	#else
		hallsens_setPhase_REV();
	#endif
}
 80004f0:	bf00      	nop
 80004f2:	bd80      	pop	{r7, pc}

080004f4 <hallsens_cal_motorRPM>:
/*-------------------------------------*/
// 모터 rpm 계산
/*-------------------------------------*/

void hallsens_cal_motorRPM(void)
{
 80004f4:	b580      	push	{r7, lr}
 80004f6:	af00      	add	r7, sp, #0
    vHallSens_handler.currTick = tim_getTim2_cnt();
 80004f8:	f002 fda8 	bl	800304c <tim_getTim2_cnt>
 80004fc:	4603      	mov	r3, r0
 80004fe:	4a1a      	ldr	r2, [pc, #104]	@ (8000568 <hallsens_cal_motorRPM+0x74>)
 8000500:	6293      	str	r3, [r2, #40]	@ 0x28

    if (vHallSens_handler.currTick >= vHallSens_handler.prevTick)
 8000502:	4b19      	ldr	r3, [pc, #100]	@ (8000568 <hallsens_cal_motorRPM+0x74>)
 8000504:	6a9a      	ldr	r2, [r3, #40]	@ 0x28
 8000506:	4b18      	ldr	r3, [pc, #96]	@ (8000568 <hallsens_cal_motorRPM+0x74>)
 8000508:	6a5b      	ldr	r3, [r3, #36]	@ 0x24
 800050a:	429a      	cmp	r2, r3
 800050c:	d307      	bcc.n	800051e <hallsens_cal_motorRPM+0x2a>
    {
        vHallSens_handler.deltaTick = vHallSens_handler.currTick - vHallSens_handler.prevTick;
 800050e:	4b16      	ldr	r3, [pc, #88]	@ (8000568 <hallsens_cal_motorRPM+0x74>)
 8000510:	6a9a      	ldr	r2, [r3, #40]	@ 0x28
 8000512:	4b15      	ldr	r3, [pc, #84]	@ (8000568 <hallsens_cal_motorRPM+0x74>)
 8000514:	6a5b      	ldr	r3, [r3, #36]	@ 0x24
 8000516:	1ad3      	subs	r3, r2, r3
 8000518:	4a13      	ldr	r2, [pc, #76]	@ (8000568 <hallsens_cal_motorRPM+0x74>)
 800051a:	62d3      	str	r3, [r2, #44]	@ 0x2c
 800051c:	e008      	b.n	8000530 <hallsens_cal_motorRPM+0x3c>
    }
    else // 오버플로우 발생: 타이머가 ARR 값에 도달하여 리셋됨
    {
        vHallSens_handler.deltaTick = (HALLSENS_CNT_MAXTICK - vHallSens_handler.prevTick) + (vHallSens_handler.currTick + 1);
 800051e:	4b12      	ldr	r3, [pc, #72]	@ (8000568 <hallsens_cal_motorRPM+0x74>)
 8000520:	6a9a      	ldr	r2, [r3, #40]	@ 0x28
 8000522:	4b11      	ldr	r3, [pc, #68]	@ (8000568 <hallsens_cal_motorRPM+0x74>)
 8000524:	6a5b      	ldr	r3, [r3, #36]	@ 0x24
 8000526:	1ad2      	subs	r2, r2, r3
 8000528:	4b10      	ldr	r3, [pc, #64]	@ (800056c <hallsens_cal_motorRPM+0x78>)
 800052a:	4413      	add	r3, r2
 800052c:	4a0e      	ldr	r2, [pc, #56]	@ (8000568 <hallsens_cal_motorRPM+0x74>)
 800052e:	62d3      	str	r3, [r2, #44]	@ 0x2c
    }

    vHallSens_handler.prevTick = vHallSens_handler.currTick;
 8000530:	4b0d      	ldr	r3, [pc, #52]	@ (8000568 <hallsens_cal_motorRPM+0x74>)
 8000532:	6a9b      	ldr	r3, [r3, #40]	@ 0x28
 8000534:	4a0c      	ldr	r2, [pc, #48]	@ (8000568 <hallsens_cal_motorRPM+0x74>)
 8000536:	6253      	str	r3, [r2, #36]	@ 0x24

    if (vHallSens_handler.deltaTick > HALLSENS_MIN_DELTA_TICK) // noise filtering
 8000538:	4b0b      	ldr	r3, [pc, #44]	@ (8000568 <hallsens_cal_motorRPM+0x74>)
 800053a:	6adb      	ldr	r3, [r3, #44]	@ 0x2c
 800053c:	f5b3 7ffa 	cmp.w	r3, #500	@ 0x1f4
 8000540:	d910      	bls.n	8000564 <hallsens_cal_motorRPM+0x70>
    {
        vHallSens_handler.rawMtrRPM = HALLSENS_CAL_MOTOR_RPM(vHallSens_handler.deltaTick);
 8000542:	4b09      	ldr	r3, [pc, #36]	@ (8000568 <hallsens_cal_motorRPM+0x74>)
 8000544:	6adb      	ldr	r3, [r3, #44]	@ 0x2c
 8000546:	ee07 3a90 	vmov	s15, r3
 800054a:	eef8 7a67 	vcvt.f32.u32	s15, s15
 800054e:	eeb3 7a08 	vmov.f32	s14, #56	@ 0x41c00000  24.0
 8000552:	ee27 7a87 	vmul.f32	s14, s15, s14
 8000556:	eddf 6a06 	vldr	s13, [pc, #24]	@ 8000570 <hallsens_cal_motorRPM+0x7c>
 800055a:	eec6 7a87 	vdiv.f32	s15, s13, s14
 800055e:	4b02      	ldr	r3, [pc, #8]	@ (8000568 <hallsens_cal_motorRPM+0x74>)
 8000560:	edc3 7a0c 	vstr	s15, [r3, #48]	@ 0x30
    }
}
 8000564:	bf00      	nop
 8000566:	bd80      	pop	{r7, pc}
 8000568:	2000001c 	.word	0x2000001c
 800056c:	0337f980 	.word	0x0337f980
 8000570:	4f411e7a 	.word	0x4f411e7a

08000574 <hallsens_filtering_rawRPM>:

void hallsens_filtering_rawRPM(void)
{
 8000574:	b580      	push	{r7, lr}
 8000576:	af00      	add	r7, sp, #0
	// 저역통과필터 적용 (IIR)
	vHallSens_handler.fin_MtrRPM = utils_LPF_RPM_filter(vHallSens_handler.rawMtrRPM);
 8000578:	4b06      	ldr	r3, [pc, #24]	@ (8000594 <hallsens_filtering_rawRPM+0x20>)
 800057a:	edd3 7a0c 	vldr	s15, [r3, #48]	@ 0x30
 800057e:	eeb0 0a67 	vmov.f32	s0, s15
 8000582:	f003 f81b 	bl	80035bc <utils_LPF_RPM_filter>
 8000586:	eef0 7a40 	vmov.f32	s15, s0
 800058a:	4b02      	ldr	r3, [pc, #8]	@ (8000594 <hallsens_filtering_rawRPM+0x20>)
 800058c:	edc3 7a0d 	vstr	s15, [r3, #52]	@ 0x34
}
 8000590:	bf00      	nop
 8000592:	bd80      	pop	{r7, pc}
 8000594:	2000001c 	.word	0x2000001c

08000598 <hallsens_check_zeroSpd>:

void hallsens_check_zeroSpd(void)
{
 8000598:	b480      	push	{r7}
 800059a:	af00      	add	r7, sp, #0
	if(vHallSens_handler.rawMtrRPM == vHallSens_handler.old_rawMtrRPM)
 800059c:	4b16      	ldr	r3, [pc, #88]	@ (80005f8 <hallsens_check_zeroSpd+0x60>)
 800059e:	ed93 7a0c 	vldr	s14, [r3, #48]	@ 0x30
 80005a2:	4b15      	ldr	r3, [pc, #84]	@ (80005f8 <hallsens_check_zeroSpd+0x60>)
 80005a4:	edd3 7a0e 	vldr	s15, [r3, #56]	@ 0x38
 80005a8:	eeb4 7a67 	vcmp.f32	s14, s15
 80005ac:	eef1 fa10 	vmrs	APSR_nzcv, fpscr
 80005b0:	d115      	bne.n	80005de <hallsens_check_zeroSpd+0x46>
	{
		vHallSens_handler.zeroSpd_cnt++;
 80005b2:	4b11      	ldr	r3, [pc, #68]	@ (80005f8 <hallsens_check_zeroSpd+0x60>)
 80005b4:	8f9b      	ldrh	r3, [r3, #60]	@ 0x3c
 80005b6:	b29b      	uxth	r3, r3
 80005b8:	3301      	adds	r3, #1
 80005ba:	b29a      	uxth	r2, r3
 80005bc:	4b0e      	ldr	r3, [pc, #56]	@ (80005f8 <hallsens_check_zeroSpd+0x60>)
 80005be:	879a      	strh	r2, [r3, #60]	@ 0x3c

		if(vHallSens_handler.zeroSpd_cnt >= HALLSENS_ZEROSPD_CNT)
 80005c0:	4b0d      	ldr	r3, [pc, #52]	@ (80005f8 <hallsens_check_zeroSpd+0x60>)
 80005c2:	8f9b      	ldrh	r3, [r3, #60]	@ 0x3c
 80005c4:	b29b      	uxth	r3, r3
 80005c6:	f644 621f 	movw	r2, #19999	@ 0x4e1f
 80005ca:	4293      	cmp	r3, r2
 80005cc:	d90a      	bls.n	80005e4 <hallsens_check_zeroSpd+0x4c>
		{
			vHallSens_handler.rawMtrRPM = 0.f;
 80005ce:	4b0a      	ldr	r3, [pc, #40]	@ (80005f8 <hallsens_check_zeroSpd+0x60>)
 80005d0:	f04f 0200 	mov.w	r2, #0
 80005d4:	631a      	str	r2, [r3, #48]	@ 0x30

			vHallSens_handler.zeroSpd_cnt = 0;
 80005d6:	4b08      	ldr	r3, [pc, #32]	@ (80005f8 <hallsens_check_zeroSpd+0x60>)
 80005d8:	2200      	movs	r2, #0
 80005da:	879a      	strh	r2, [r3, #60]	@ 0x3c
 80005dc:	e002      	b.n	80005e4 <hallsens_check_zeroSpd+0x4c>
		}
	}
	else
	{
		vHallSens_handler.zeroSpd_cnt = 0;
 80005de:	4b06      	ldr	r3, [pc, #24]	@ (80005f8 <hallsens_check_zeroSpd+0x60>)
 80005e0:	2200      	movs	r2, #0
 80005e2:	879a      	strh	r2, [r3, #60]	@ 0x3c
	}

	vHallSens_handler.old_rawMtrRPM = vHallSens_handler.rawMtrRPM;
 80005e4:	4b04      	ldr	r3, [pc, #16]	@ (80005f8 <hallsens_check_zeroSpd+0x60>)
 80005e6:	6b1b      	ldr	r3, [r3, #48]	@ 0x30
 80005e8:	4a03      	ldr	r2, [pc, #12]	@ (80005f8 <hallsens_check_zeroSpd+0x60>)
 80005ea:	6393      	str	r3, [r2, #56]	@ 0x38
}
 80005ec:	bf00      	nop
 80005ee:	46bd      	mov	sp, r7
 80005f0:	f85d 7b04 	ldr.w	r7, [sp], #4
 80005f4:	4770      	bx	lr
 80005f6:	bf00      	nop
 80005f8:	2000001c 	.word	0x2000001c

080005fc <hallsens_get_motorRPM>:

float hallsens_get_motorRPM(void)
{
 80005fc:	b480      	push	{r7}
 80005fe:	af00      	add	r7, sp, #0
    return vHallSens_handler.fin_MtrRPM;
 8000600:	4b04      	ldr	r3, [pc, #16]	@ (8000614 <hallsens_get_motorRPM+0x18>)
 8000602:	6b5b      	ldr	r3, [r3, #52]	@ 0x34
 8000604:	ee07 3a90 	vmov	s15, r3
}
 8000608:	eeb0 0a67 	vmov.f32	s0, s15
 800060c:	46bd      	mov	sp, r7
 800060e:	f85d 7b04 	ldr.w	r7, [sp], #4
 8000612:	4770      	bx	lr
 8000614:	2000001c 	.word	0x2000001c

08000618 <mtrCtrl_PI_clearTerms>:
typMtrCtrl_handle_byPI vPiCtrl_handler;

extern typThrottle_handle vThrottle_handler; // sensing.c의 스로틀 핸들러 객체 참조

void mtrCtrl_PI_clearTerms(void)
{
 8000618:	b480      	push	{r7}
 800061a:	af00      	add	r7, sp, #0
    vPiCtrl_handler.P_term = 0.0f;
 800061c:	4b0b      	ldr	r3, [pc, #44]	@ (800064c <mtrCtrl_PI_clearTerms+0x34>)
 800061e:	f04f 0200 	mov.w	r2, #0
 8000622:	615a      	str	r2, [r3, #20]
    vPiCtrl_handler.I_term = 0.0f;
 8000624:	4b09      	ldr	r3, [pc, #36]	@ (800064c <mtrCtrl_PI_clearTerms+0x34>)
 8000626:	f04f 0200 	mov.w	r2, #0
 800062a:	619a      	str	r2, [r3, #24]
    vPiCtrl_handler.PI_term = 0.0f;
 800062c:	4b07      	ldr	r3, [pc, #28]	@ (800064c <mtrCtrl_PI_clearTerms+0x34>)
 800062e:	f04f 0200 	mov.w	r2, #0
 8000632:	61da      	str	r2, [r3, #28]
    vPiCtrl_handler.rpm_rampVal = 0.f;
 8000634:	4b05      	ldr	r3, [pc, #20]	@ (800064c <mtrCtrl_PI_clearTerms+0x34>)
 8000636:	f04f 0200 	mov.w	r2, #0
 800063a:	611a      	str	r2, [r3, #16]
    vPiCtrl_handler.CCR_refVal = 0.f;
 800063c:	4b03      	ldr	r3, [pc, #12]	@ (800064c <mtrCtrl_PI_clearTerms+0x34>)
 800063e:	2200      	movs	r2, #0
 8000640:	621a      	str	r2, [r3, #32]
}
 8000642:	bf00      	nop
 8000644:	46bd      	mov	sp, r7
 8000646:	f85d 7b04 	ldr.w	r7, [sp], #4
 800064a:	4770      	bx	lr
 800064c:	2000007c 	.word	0x2000007c

08000650 <mtrCtrl_PI_setTunings>:

void mtrCtrl_PI_setTunings(float Kp, float Ki)
{
 8000650:	b480      	push	{r7}
 8000652:	b083      	sub	sp, #12
 8000654:	af00      	add	r7, sp, #0
 8000656:	ed87 0a01 	vstr	s0, [r7, #4]
 800065a:	edc7 0a00 	vstr	s1, [r7]
    vPiCtrl_handler.Kp = Kp;
 800065e:	4a06      	ldr	r2, [pc, #24]	@ (8000678 <mtrCtrl_PI_setTunings+0x28>)
 8000660:	687b      	ldr	r3, [r7, #4]
 8000662:	6013      	str	r3, [r2, #0]
    vPiCtrl_handler.Ki = Ki;
 8000664:	4a04      	ldr	r2, [pc, #16]	@ (8000678 <mtrCtrl_PI_setTunings+0x28>)
 8000666:	683b      	ldr	r3, [r7, #0]
 8000668:	6053      	str	r3, [r2, #4]
}
 800066a:	bf00      	nop
 800066c:	370c      	adds	r7, #12
 800066e:	46bd      	mov	sp, r7
 8000670:	f85d 7b04 	ldr.w	r7, [sp], #4
 8000674:	4770      	bx	lr
 8000676:	bf00      	nop
 8000678:	2000007c 	.word	0x2000007c

0800067c <mtrCtrl_PI_setRPMRef>:

void mtrCtrl_PI_setRPMRef(float rpm_ref)
{
 800067c:	b480      	push	{r7}
 800067e:	b083      	sub	sp, #12
 8000680:	af00      	add	r7, sp, #0
 8000682:	ed87 0a01 	vstr	s0, [r7, #4]
    vPiCtrl_handler.rpm_refVal = rpm_ref;
 8000686:	4a04      	ldr	r2, [pc, #16]	@ (8000698 <mtrCtrl_PI_setRPMRef+0x1c>)
 8000688:	687b      	ldr	r3, [r7, #4]
 800068a:	60d3      	str	r3, [r2, #12]
}
 800068c:	bf00      	nop
 800068e:	370c      	adds	r7, #12
 8000690:	46bd      	mov	sp, r7
 8000692:	f85d 7b04 	ldr.w	r7, [sp], #4
 8000696:	4770      	bx	lr
 8000698:	2000007c 	.word	0x2000007c

0800069c <mtrCtrl_PI_init>:

static void mtrCtrl_PI_init(float Kp, float Ki)
{
 800069c:	b580      	push	{r7, lr}
 800069e:	b082      	sub	sp, #8
 80006a0:	af00      	add	r7, sp, #0
 80006a2:	ed87 0a01 	vstr	s0, [r7, #4]
 80006a6:	edc7 0a00 	vstr	s1, [r7]
    // PI 제어에 필요한 변수 초기화

	mtrCtrl_PI_setTunings(Kp, Ki);
 80006aa:	edd7 0a00 	vldr	s1, [r7]
 80006ae:	ed97 0a01 	vldr	s0, [r7, #4]
 80006b2:	f7ff ffcd 	bl	8000650 <mtrCtrl_PI_setTunings>

	mtrCtrl_PI_setRPMRef(0.0);
 80006b6:	ed9f 0a05 	vldr	s0, [pc, #20]	@ 80006cc <mtrCtrl_PI_init+0x30>
 80006ba:	f7ff ffdf 	bl	800067c <mtrCtrl_PI_setRPMRef>

    mtrCtrl_PI_clearTerms();
 80006be:	f7ff ffab 	bl	8000618 <mtrCtrl_PI_clearTerms>
}
 80006c2:	bf00      	nop
 80006c4:	3708      	adds	r7, #8
 80006c6:	46bd      	mov	sp, r7
 80006c8:	bd80      	pop	{r7, pc}
 80006ca:	bf00      	nop
 80006cc:	00000000 	.word	0x00000000

080006d0 <mtrCtrl_PI_getRPMRef>:

float mtrCtrl_PI_getRPMRef(void)
{
 80006d0:	b480      	push	{r7}
 80006d2:	af00      	add	r7, sp, #0
    return vPiCtrl_handler.rpm_refVal;
 80006d4:	4b04      	ldr	r3, [pc, #16]	@ (80006e8 <mtrCtrl_PI_getRPMRef+0x18>)
 80006d6:	68db      	ldr	r3, [r3, #12]
 80006d8:	ee07 3a90 	vmov	s15, r3
}
 80006dc:	eeb0 0a67 	vmov.f32	s0, s15
 80006e0:	46bd      	mov	sp, r7
 80006e2:	f85d 7b04 	ldr.w	r7, [sp], #4
 80006e6:	4770      	bx	lr
 80006e8:	2000007c 	.word	0x2000007c

080006ec <mtrCtrl_PI_update>:

// NOTE : 지령주었을 때 정상상태 도달까지의 시간 100ms, 속도리플 5% 미만, 오버슛/언더슛 제한 10%

void mtrCtrl_PI_update(void)
{
 80006ec:	b580      	push	{r7, lr}
 80006ee:	b082      	sub	sp, #8
 80006f0:	af00      	add	r7, sp, #0
	float currRPM = hallsens_get_motorRPM();
 80006f2:	f7ff ff83 	bl	80005fc <hallsens_get_motorRPM>
 80006f6:	ed87 0a01 	vstr	s0, [r7, #4]

	if((mtrCtrl_getSelCtrlMode() == MTRCTRL_CTRL_PI) && (throttle_get_validateFlg() == true))
 80006fa:	f000 f921 	bl	8000940 <mtrCtrl_getSelCtrlMode>
 80006fe:	4603      	mov	r3, r0
 8000700:	2b01      	cmp	r3, #1
 8000702:	f040 8081 	bne.w	8000808 <mtrCtrl_PI_update+0x11c>
 8000706:	f000 fa9f 	bl	8000c48 <throttle_get_validateFlg>
 800070a:	4603      	mov	r3, r0
 800070c:	2b00      	cmp	r3, #0
 800070e:	d07b      	beq.n	8000808 <mtrCtrl_PI_update+0x11c>
	{
        // 듀티값이 순간적으로 튀는 걸 방지하기 위해, 지령값에 ramp처리를 한다.
        utils_ramp2Tgt(vPiCtrl_handler.rpm_refVal, &vPiCtrl_handler.rpm_rampVal, MTRCTRL_PI_RAMP_MAXVAL);
 8000710:	4b41      	ldr	r3, [pc, #260]	@ (8000818 <mtrCtrl_PI_update+0x12c>)
 8000712:	edd3 7a03 	vldr	s15, [r3, #12]
 8000716:	eddf 0a41 	vldr	s1, [pc, #260]	@ 800081c <mtrCtrl_PI_update+0x130>
 800071a:	4841      	ldr	r0, [pc, #260]	@ (8000820 <mtrCtrl_PI_update+0x134>)
 800071c:	eeb0 0a67 	vmov.f32	s0, s15
 8000720:	f002 ffdc 	bl	80036dc <utils_ramp2Tgt>

		// vPiCtrl_handler.rpm_error = vPiCtrl_handler.rpm_refVal - currRPM;
        vPiCtrl_handler.rpm_error = vPiCtrl_handler.rpm_rampVal - currRPM;
 8000724:	4b3c      	ldr	r3, [pc, #240]	@ (8000818 <mtrCtrl_PI_update+0x12c>)
 8000726:	ed93 7a04 	vldr	s14, [r3, #16]
 800072a:	edd7 7a01 	vldr	s15, [r7, #4]
 800072e:	ee77 7a67 	vsub.f32	s15, s14, s15
 8000732:	4b39      	ldr	r3, [pc, #228]	@ (8000818 <mtrCtrl_PI_update+0x12c>)
 8000734:	edc3 7a02 	vstr	s15, [r3, #8]

		vPiCtrl_handler.P_term = vPiCtrl_handler.Kp * vPiCtrl_handler.rpm_error;
 8000738:	4b37      	ldr	r3, [pc, #220]	@ (8000818 <mtrCtrl_PI_update+0x12c>)
 800073a:	ed93 7a00 	vldr	s14, [r3]
 800073e:	4b36      	ldr	r3, [pc, #216]	@ (8000818 <mtrCtrl_PI_update+0x12c>)
 8000740:	edd3 7a02 	vldr	s15, [r3, #8]
 8000744:	ee67 7a27 	vmul.f32	s15, s14, s15
 8000748:	4b33      	ldr	r3, [pc, #204]	@ (8000818 <mtrCtrl_PI_update+0x12c>)
 800074a:	edc3 7a05 	vstr	s15, [r3, #20]
		vPiCtrl_handler.I_term += vPiCtrl_handler.Ki * vPiCtrl_handler.rpm_error * MTRCTRL_PI_PERIOD;
 800074e:	4b32      	ldr	r3, [pc, #200]	@ (8000818 <mtrCtrl_PI_update+0x12c>)
 8000750:	ed93 7a06 	vldr	s14, [r3, #24]
 8000754:	4b30      	ldr	r3, [pc, #192]	@ (8000818 <mtrCtrl_PI_update+0x12c>)
 8000756:	edd3 6a01 	vldr	s13, [r3, #4]
 800075a:	4b2f      	ldr	r3, [pc, #188]	@ (8000818 <mtrCtrl_PI_update+0x12c>)
 800075c:	edd3 7a02 	vldr	s15, [r3, #8]
 8000760:	ee66 7aa7 	vmul.f32	s15, s13, s15
 8000764:	eddf 6a2f 	vldr	s13, [pc, #188]	@ 8000824 <mtrCtrl_PI_update+0x138>
 8000768:	ee67 7aa6 	vmul.f32	s15, s15, s13
 800076c:	ee77 7a27 	vadd.f32	s15, s14, s15
 8000770:	4b29      	ldr	r3, [pc, #164]	@ (8000818 <mtrCtrl_PI_update+0x12c>)
 8000772:	edc3 7a06 	vstr	s15, [r3, #24]

        // I-clamping
		if(vPiCtrl_handler.I_term > MTRCTRL_PI_MAX_CCR_VAL)		vPiCtrl_handler.I_term = MTRCTRL_PI_MAX_CCR_VAL;
 8000776:	4b28      	ldr	r3, [pc, #160]	@ (8000818 <mtrCtrl_PI_update+0x12c>)
 8000778:	edd3 7a06 	vldr	s15, [r3, #24]
 800077c:	ed9f 7a2a 	vldr	s14, [pc, #168]	@ 8000828 <mtrCtrl_PI_update+0x13c>
 8000780:	eef4 7ac7 	vcmpe.f32	s15, s14
 8000784:	eef1 fa10 	vmrs	APSR_nzcv, fpscr
 8000788:	dd03      	ble.n	8000792 <mtrCtrl_PI_update+0xa6>
 800078a:	4b23      	ldr	r3, [pc, #140]	@ (8000818 <mtrCtrl_PI_update+0x12c>)
 800078c:	4a27      	ldr	r2, [pc, #156]	@ (800082c <mtrCtrl_PI_update+0x140>)
 800078e:	619a      	str	r2, [r3, #24]
 8000790:	e00b      	b.n	80007aa <mtrCtrl_PI_update+0xbe>
		else if (vPiCtrl_handler.I_term < 0)					vPiCtrl_handler.I_term = 0;
 8000792:	4b21      	ldr	r3, [pc, #132]	@ (8000818 <mtrCtrl_PI_update+0x12c>)
 8000794:	edd3 7a06 	vldr	s15, [r3, #24]
 8000798:	eef5 7ac0 	vcmpe.f32	s15, #0.0
 800079c:	eef1 fa10 	vmrs	APSR_nzcv, fpscr
 80007a0:	d503      	bpl.n	80007aa <mtrCtrl_PI_update+0xbe>
 80007a2:	4b1d      	ldr	r3, [pc, #116]	@ (8000818 <mtrCtrl_PI_update+0x12c>)
 80007a4:	f04f 0200 	mov.w	r2, #0
 80007a8:	619a      	str	r2, [r3, #24]

		vPiCtrl_handler.PI_term = vPiCtrl_handler.P_term + vPiCtrl_handler.I_term;
 80007aa:	4b1b      	ldr	r3, [pc, #108]	@ (8000818 <mtrCtrl_PI_update+0x12c>)
 80007ac:	ed93 7a05 	vldr	s14, [r3, #20]
 80007b0:	4b19      	ldr	r3, [pc, #100]	@ (8000818 <mtrCtrl_PI_update+0x12c>)
 80007b2:	edd3 7a06 	vldr	s15, [r3, #24]
 80007b6:	ee77 7a27 	vadd.f32	s15, s14, s15
 80007ba:	4b17      	ldr	r3, [pc, #92]	@ (8000818 <mtrCtrl_PI_update+0x12c>)
 80007bc:	edc3 7a07 	vstr	s15, [r3, #28]

        // PI-clamping
		if(vPiCtrl_handler.PI_term > MTRCTRL_PI_MAX_CCR_VAL)	vPiCtrl_handler.PI_term = MTRCTRL_PI_MAX_CCR_VAL;
 80007c0:	4b15      	ldr	r3, [pc, #84]	@ (8000818 <mtrCtrl_PI_update+0x12c>)
 80007c2:	edd3 7a07 	vldr	s15, [r3, #28]
 80007c6:	ed9f 7a18 	vldr	s14, [pc, #96]	@ 8000828 <mtrCtrl_PI_update+0x13c>
 80007ca:	eef4 7ac7 	vcmpe.f32	s15, s14
 80007ce:	eef1 fa10 	vmrs	APSR_nzcv, fpscr
 80007d2:	dd03      	ble.n	80007dc <mtrCtrl_PI_update+0xf0>
 80007d4:	4b10      	ldr	r3, [pc, #64]	@ (8000818 <mtrCtrl_PI_update+0x12c>)
 80007d6:	4a15      	ldr	r2, [pc, #84]	@ (800082c <mtrCtrl_PI_update+0x140>)
 80007d8:	61da      	str	r2, [r3, #28]
 80007da:	e00b      	b.n	80007f4 <mtrCtrl_PI_update+0x108>
		else if (vPiCtrl_handler.PI_term < 0) 					vPiCtrl_handler.PI_term = 0;
 80007dc:	4b0e      	ldr	r3, [pc, #56]	@ (8000818 <mtrCtrl_PI_update+0x12c>)
 80007de:	edd3 7a07 	vldr	s15, [r3, #28]
 80007e2:	eef5 7ac0 	vcmpe.f32	s15, #0.0
 80007e6:	eef1 fa10 	vmrs	APSR_nzcv, fpscr
 80007ea:	d503      	bpl.n	80007f4 <mtrCtrl_PI_update+0x108>
 80007ec:	4b0a      	ldr	r3, [pc, #40]	@ (8000818 <mtrCtrl_PI_update+0x12c>)
 80007ee:	f04f 0200 	mov.w	r2, #0
 80007f2:	61da      	str	r2, [r3, #28]

		vPiCtrl_handler.CCR_refVal = (uint32_t)vPiCtrl_handler.PI_term;
 80007f4:	4b08      	ldr	r3, [pc, #32]	@ (8000818 <mtrCtrl_PI_update+0x12c>)
 80007f6:	edd3 7a07 	vldr	s15, [r3, #28]
 80007fa:	eefc 7ae7 	vcvt.u32.f32	s15, s15
 80007fe:	ee17 2a90 	vmov	r2, s15
 8000802:	4b05      	ldr	r3, [pc, #20]	@ (8000818 <mtrCtrl_PI_update+0x12c>)
 8000804:	621a      	str	r2, [r3, #32]
 8000806:	e002      	b.n	800080e <mtrCtrl_PI_update+0x122>
	}
	else
	{
		mtrCtrl_PI_clearTerms();
 8000808:	f7ff ff06 	bl	8000618 <mtrCtrl_PI_clearTerms>
	}
}
 800080c:	bf00      	nop
 800080e:	bf00      	nop
 8000810:	3708      	adds	r7, #8
 8000812:	46bd      	mov	sp, r7
 8000814:	bd80      	pop	{r7, pc}
 8000816:	bf00      	nop
 8000818:	2000007c 	.word	0x2000007c
 800081c:	43480000 	.word	0x43480000
 8000820:	2000008c 	.word	0x2000008c
 8000824:	3a83126f 	.word	0x3a83126f
 8000828:	45a59800 	.word	0x45a59800
 800082c:	45a59800 	.word	0x45a59800

08000830 <mtrCtrl_objInit>:

void mtrCtrl_objInit(float Kp, float Ki)
{
 8000830:	b580      	push	{r7, lr}
 8000832:	b082      	sub	sp, #8
 8000834:	af00      	add	r7, sp, #0
 8000836:	ed87 0a01 	vstr	s0, [r7, #4]
 800083a:	edc7 0a00 	vstr	s1, [r7]
    mtrCtrl_PI_init(Kp, Ki);
 800083e:	edd7 0a00 	vldr	s1, [r7]
 8000842:	ed97 0a01 	vldr	s0, [r7, #4]
 8000846:	f7ff ff29 	bl	800069c <mtrCtrl_PI_init>

    vMotorCtrl_manager.selCtrl_mode = MTRCTRL_CTRL_THROTTLE;
 800084a:	4b12      	ldr	r3, [pc, #72]	@ (8000894 <mtrCtrl_objInit+0x64>)
 800084c:	2200      	movs	r2, #0
 800084e:	701a      	strb	r2, [r3, #0]
    vMotorCtrl_manager.throttleCtrl = &vThrottle_handler;
 8000850:	4b10      	ldr	r3, [pc, #64]	@ (8000894 <mtrCtrl_objInit+0x64>)
 8000852:	4a11      	ldr	r2, [pc, #68]	@ (8000898 <mtrCtrl_objInit+0x68>)
 8000854:	605a      	str	r2, [r3, #4]
    vMotorCtrl_manager.piCtrl = &vPiCtrl_handler;
 8000856:	4b0f      	ldr	r3, [pc, #60]	@ (8000894 <mtrCtrl_objInit+0x64>)
 8000858:	4a10      	ldr	r2, [pc, #64]	@ (800089c <mtrCtrl_objInit+0x6c>)
 800085a:	609a      	str	r2, [r3, #8]
    vMotorCtrl_manager.final_CCR_refVal = 0;
 800085c:	4b0d      	ldr	r3, [pc, #52]	@ (8000894 <mtrCtrl_objInit+0x64>)
 800085e:	2200      	movs	r2, #0
 8000860:	60da      	str	r2, [r3, #12]

    vMotorCtrl_manager.motor_RPM = 0.0f;
 8000862:	4b0c      	ldr	r3, [pc, #48]	@ (8000894 <mtrCtrl_objInit+0x64>)
 8000864:	f04f 0200 	mov.w	r2, #0
 8000868:	611a      	str	r2, [r3, #16]
    vMotorCtrl_manager.overCurr_cnt = 0;
 800086a:	4b0a      	ldr	r3, [pc, #40]	@ (8000894 <mtrCtrl_objInit+0x64>)
 800086c:	2200      	movs	r2, #0
 800086e:	829a      	strh	r2, [r3, #20]

    vMotorCtrl_manager.motor_speed_KMH = 0.0f;
 8000870:	4b08      	ldr	r3, [pc, #32]	@ (8000894 <mtrCtrl_objInit+0x64>)
 8000872:	f04f 0200 	mov.w	r2, #0
 8000876:	619a      	str	r2, [r3, #24]
    vMotorCtrl_manager.errCode = MTRCTRL_ERR_NONE;
 8000878:	4b06      	ldr	r3, [pc, #24]	@ (8000894 <mtrCtrl_objInit+0x64>)
 800087a:	2205      	movs	r2, #5
 800087c:	771a      	strb	r2, [r3, #28]
    vMotorCtrl_manager.thrttl_Ctrl = false;
 800087e:	4b05      	ldr	r3, [pc, #20]	@ (8000894 <mtrCtrl_objInit+0x64>)
 8000880:	2200      	movs	r2, #0
 8000882:	775a      	strb	r2, [r3, #29]
    vMotorCtrl_manager.peripheral_init = false;
 8000884:	4b03      	ldr	r3, [pc, #12]	@ (8000894 <mtrCtrl_objInit+0x64>)
 8000886:	2200      	movs	r2, #0
 8000888:	779a      	strb	r2, [r3, #30]
}
 800088a:	bf00      	nop
 800088c:	3708      	adds	r7, #8
 800088e:	46bd      	mov	sp, r7
 8000890:	bd80      	pop	{r7, pc}
 8000892:	bf00      	nop
 8000894:	2000005c 	.word	0x2000005c
 8000898:	200000a0 	.word	0x200000a0
 800089c:	2000007c 	.word	0x2000007c

080008a0 <mtrCtrl_calc_mtrSpeed>:

void mtrCtrl_calc_mtrSpeed(void)
{
 80008a0:	b580      	push	{r7, lr}
 80008a2:	af00      	add	r7, sp, #0
	vMotorCtrl_manager.motor_RPM = hallsens_get_motorRPM();
 80008a4:	f7ff feaa 	bl	80005fc <hallsens_get_motorRPM>
 80008a8:	eef0 7a40 	vmov.f32	s15, s0
 80008ac:	4b0b      	ldr	r3, [pc, #44]	@ (80008dc <mtrCtrl_calc_mtrSpeed+0x3c>)
 80008ae:	edc3 7a04 	vstr	s15, [r3, #16]
    vMotorCtrl_manager.motor_speed_KMH = UTILS_RPM_TO_KMH(vMotorCtrl_manager.motor_RPM);
 80008b2:	4b0a      	ldr	r3, [pc, #40]	@ (80008dc <mtrCtrl_calc_mtrSpeed+0x3c>)
 80008b4:	edd3 7a04 	vldr	s15, [r3, #16]
 80008b8:	ed9f 7a09 	vldr	s14, [pc, #36]	@ 80008e0 <mtrCtrl_calc_mtrSpeed+0x40>
 80008bc:	ee67 7a87 	vmul.f32	s15, s15, s14
 80008c0:	ed9f 7a08 	vldr	s14, [pc, #32]	@ 80008e4 <mtrCtrl_calc_mtrSpeed+0x44>
 80008c4:	ee27 7a87 	vmul.f32	s14, s15, s14
 80008c8:	eddf 6a07 	vldr	s13, [pc, #28]	@ 80008e8 <mtrCtrl_calc_mtrSpeed+0x48>
 80008cc:	eec7 7a26 	vdiv.f32	s15, s14, s13
 80008d0:	4b02      	ldr	r3, [pc, #8]	@ (80008dc <mtrCtrl_calc_mtrSpeed+0x3c>)
 80008d2:	edc3 7a06 	vstr	s15, [r3, #24]
}
 80008d6:	bf00      	nop
 80008d8:	bd80      	pop	{r7, pc}
 80008da:	bf00      	nop
 80008dc:	2000005c 	.word	0x2000005c
 80008e0:	3f20d973 	.word	0x3f20d973
 80008e4:	42700000 	.word	0x42700000
 80008e8:	447a0000 	.word	0x447a0000

080008ec <mtrCtrl_setFinalCCR_refVal>:
{
    return vMotorCtrl_manager.motor_speed_KMH;
}

void mtrCtrl_setFinalCCR_refVal(void)
{
 80008ec:	b580      	push	{r7, lr}
 80008ee:	b082      	sub	sp, #8
 80008f0:	af00      	add	r7, sp, #0
	typMtrCtrl_selCtrl_mode mode = mtrCtrl_getSelCtrlMode();
 80008f2:	f000 f825 	bl	8000940 <mtrCtrl_getSelCtrlMode>
 80008f6:	4603      	mov	r3, r0
 80008f8:	71fb      	strb	r3, [r7, #7]

    if (mode == MTRCTRL_CTRL_THROTTLE)
 80008fa:	79fb      	ldrb	r3, [r7, #7]
 80008fc:	2b00      	cmp	r3, #0
 80008fe:	d105      	bne.n	800090c <mtrCtrl_setFinalCCR_refVal+0x20>
    {
        vMotorCtrl_manager.final_CCR_refVal = vMotorCtrl_manager.throttleCtrl->CCR_refVal;
 8000900:	4b08      	ldr	r3, [pc, #32]	@ (8000924 <mtrCtrl_setFinalCCR_refVal+0x38>)
 8000902:	685b      	ldr	r3, [r3, #4]
 8000904:	695b      	ldr	r3, [r3, #20]
 8000906:	4a07      	ldr	r2, [pc, #28]	@ (8000924 <mtrCtrl_setFinalCCR_refVal+0x38>)
 8000908:	60d3      	str	r3, [r2, #12]
    }
    else if (mode == MTRCTRL_CTRL_PI)
    {
        vMotorCtrl_manager.final_CCR_refVal = vMotorCtrl_manager.piCtrl->CCR_refVal;
    }
}
 800090a:	e007      	b.n	800091c <mtrCtrl_setFinalCCR_refVal+0x30>
    else if (mode == MTRCTRL_CTRL_PI)
 800090c:	79fb      	ldrb	r3, [r7, #7]
 800090e:	2b01      	cmp	r3, #1
 8000910:	d104      	bne.n	800091c <mtrCtrl_setFinalCCR_refVal+0x30>
        vMotorCtrl_manager.final_CCR_refVal = vMotorCtrl_manager.piCtrl->CCR_refVal;
 8000912:	4b04      	ldr	r3, [pc, #16]	@ (8000924 <mtrCtrl_setFinalCCR_refVal+0x38>)
 8000914:	689b      	ldr	r3, [r3, #8]
 8000916:	6a1b      	ldr	r3, [r3, #32]
 8000918:	4a02      	ldr	r2, [pc, #8]	@ (8000924 <mtrCtrl_setFinalCCR_refVal+0x38>)
 800091a:	60d3      	str	r3, [r2, #12]
}
 800091c:	bf00      	nop
 800091e:	3708      	adds	r7, #8
 8000920:	46bd      	mov	sp, r7
 8000922:	bd80      	pop	{r7, pc}
 8000924:	2000005c 	.word	0x2000005c

08000928 <mtrCtrl_getFinalCCR_refVal>:

uint32_t mtrCtrl_getFinalCCR_refVal(void)
{
 8000928:	b480      	push	{r7}
 800092a:	af00      	add	r7, sp, #0
    return vMotorCtrl_manager.final_CCR_refVal;
 800092c:	4b03      	ldr	r3, [pc, #12]	@ (800093c <mtrCtrl_getFinalCCR_refVal+0x14>)
 800092e:	68db      	ldr	r3, [r3, #12]
}
 8000930:	4618      	mov	r0, r3
 8000932:	46bd      	mov	sp, r7
 8000934:	f85d 7b04 	ldr.w	r7, [sp], #4
 8000938:	4770      	bx	lr
 800093a:	bf00      	nop
 800093c:	2000005c 	.word	0x2000005c

08000940 <mtrCtrl_getSelCtrlMode>:

typMtrCtrl_selCtrl_mode mtrCtrl_getSelCtrlMode(void)
{
 8000940:	b480      	push	{r7}
 8000942:	af00      	add	r7, sp, #0
    return vMotorCtrl_manager.selCtrl_mode;
 8000944:	4b03      	ldr	r3, [pc, #12]	@ (8000954 <mtrCtrl_getSelCtrlMode+0x14>)
 8000946:	781b      	ldrb	r3, [r3, #0]
}
 8000948:	4618      	mov	r0, r3
 800094a:	46bd      	mov	sp, r7
 800094c:	f85d 7b04 	ldr.w	r7, [sp], #4
 8000950:	4770      	bx	lr
 8000952:	bf00      	nop
 8000954:	2000005c 	.word	0x2000005c

08000958 <mtrCtrl_setSelCtrlMode>:

void mtrCtrl_setSelCtrlMode(typMtrCtrl_selCtrl_mode mode)
{
 8000958:	b480      	push	{r7}
 800095a:	b083      	sub	sp, #12
 800095c:	af00      	add	r7, sp, #0
 800095e:	4603      	mov	r3, r0
 8000960:	71fb      	strb	r3, [r7, #7]
    vMotorCtrl_manager.selCtrl_mode = mode;
 8000962:	4a04      	ldr	r2, [pc, #16]	@ (8000974 <mtrCtrl_setSelCtrlMode+0x1c>)
 8000964:	79fb      	ldrb	r3, [r7, #7]
 8000966:	7013      	strb	r3, [r2, #0]
}
 8000968:	bf00      	nop
 800096a:	370c      	adds	r7, #12
 800096c:	46bd      	mov	sp, r7
 800096e:	f85d 7b04 	ldr.w	r7, [sp], #4
 8000972:	4770      	bx	lr
 8000974:	2000005c 	.word	0x2000005c

08000978 <mtrCtrl_getPeriphInit>:

bool mtrCtrl_getPeriphInit(void)
{
 8000978:	b480      	push	{r7}
 800097a:	af00      	add	r7, sp, #0
    return vMotorCtrl_manager.peripheral_init;
 800097c:	4b03      	ldr	r3, [pc, #12]	@ (800098c <mtrCtrl_getPeriphInit+0x14>)
 800097e:	7f9b      	ldrb	r3, [r3, #30]
}
 8000980:	4618      	mov	r0, r3
 8000982:	46bd      	mov	sp, r7
 8000984:	f85d 7b04 	ldr.w	r7, [sp], #4
 8000988:	4770      	bx	lr
 800098a:	bf00      	nop
 800098c:	2000005c 	.word	0x2000005c

08000990 <mtrCtrl_setPeriphInit>:

void mtrCtrl_setPeriphInit(void)
{
 8000990:	b480      	push	{r7}
 8000992:	af00      	add	r7, sp, #0
    vMotorCtrl_manager.peripheral_init = true;
 8000994:	4b03      	ldr	r3, [pc, #12]	@ (80009a4 <mtrCtrl_setPeriphInit+0x14>)
 8000996:	2201      	movs	r2, #1
 8000998:	779a      	strb	r2, [r3, #30]
}
 800099a:	bf00      	nop
 800099c:	46bd      	mov	sp, r7
 800099e:	f85d 7b04 	ldr.w	r7, [sp], #4
 80009a2:	4770      	bx	lr
 80009a4:	2000005c 	.word	0x2000005c

080009a8 <mtrCtrl_setCtrlContinue>:

void mtrCtrl_setCtrlContinue(bool isContinue)
{
 80009a8:	b480      	push	{r7}
 80009aa:	b083      	sub	sp, #12
 80009ac:	af00      	add	r7, sp, #0
 80009ae:	4603      	mov	r3, r0
 80009b0:	71fb      	strb	r3, [r7, #7]
    vMotorCtrl_manager.thrttl_Ctrl = isContinue;
 80009b2:	4a04      	ldr	r2, [pc, #16]	@ (80009c4 <mtrCtrl_setCtrlContinue+0x1c>)
 80009b4:	79fb      	ldrb	r3, [r7, #7]
 80009b6:	7753      	strb	r3, [r2, #29]
}
 80009b8:	bf00      	nop
 80009ba:	370c      	adds	r7, #12
 80009bc:	46bd      	mov	sp, r7
 80009be:	f85d 7b04 	ldr.w	r7, [sp], #4
 80009c2:	4770      	bx	lr
 80009c4:	2000005c 	.word	0x2000005c

080009c8 <mtrCtrl_getCtrlContinue>:

bool mtrCtrl_getCtrlContinue(void)
{
 80009c8:	b480      	push	{r7}
 80009ca:	af00      	add	r7, sp, #0
    return vMotorCtrl_manager.thrttl_Ctrl;
 80009cc:	4b03      	ldr	r3, [pc, #12]	@ (80009dc <mtrCtrl_getCtrlContinue+0x14>)
 80009ce:	7f5b      	ldrb	r3, [r3, #29]
}
 80009d0:	4618      	mov	r0, r3
 80009d2:	46bd      	mov	sp, r7
 80009d4:	f85d 7b04 	ldr.w	r7, [sp], #4
 80009d8:	4770      	bx	lr
 80009da:	bf00      	nop
 80009dc:	2000005c 	.word	0x2000005c

080009e0 <mtrCtrl_chkErrSt>:

// todo : 에러의 우선순위에 맞춰서 동작하게 수정하기
void mtrCtrl_chkErrSt(typMtrCtrl_errCode setErr) // 입력 : 어떤 에러체크를 해야하는지
{
 80009e0:	b580      	push	{r7, lr}
 80009e2:	b082      	sub	sp, #8
 80009e4:	af00      	add	r7, sp, #0
 80009e6:	4603      	mov	r3, r0
 80009e8:	71fb      	strb	r3, [r7, #7]
    switch (setErr)
 80009ea:	79fb      	ldrb	r3, [r7, #7]
 80009ec:	3b01      	subs	r3, #1
 80009ee:	2b04      	cmp	r3, #4
 80009f0:	d846      	bhi.n	8000a80 <mtrCtrl_chkErrSt+0xa0>
 80009f2:	a201      	add	r2, pc, #4	@ (adr r2, 80009f8 <mtrCtrl_chkErrSt+0x18>)
 80009f4:	f852 f023 	ldr.w	pc, [r2, r3, lsl #2]
 80009f8:	08000a0d 	.word	0x08000a0d
 80009fc:	08000a45 	.word	0x08000a45
 8000a00:	08000a81 	.word	0x08000a81
 8000a04:	08000a67 	.word	0x08000a67
 8000a08:	08000a81 	.word	0x08000a81
    case MTRCTRL_ERR_NONE:
        // do nothing
        break;
    case MTRCTRL_ERR_OVER_CURRENT:

        if (sensingCurr_getOverCurrent_st() == true) // 과전류 상태가 실제로 감지될 때만 에러 코드 기록
 8000a0c:	f000 fa58 	bl	8000ec0 <sensingCurr_getOverCurrent_st>
 8000a10:	4603      	mov	r3, r0
 8000a12:	2b00      	cmp	r3, #0
 8000a14:	d00e      	beq.n	8000a34 <mtrCtrl_chkErrSt+0x54>
        {
            vMotorCtrl_manager.overCurr_cnt++;
 8000a16:	4b1f      	ldr	r3, [pc, #124]	@ (8000a94 <mtrCtrl_chkErrSt+0xb4>)
 8000a18:	8a9b      	ldrh	r3, [r3, #20]
 8000a1a:	3301      	adds	r3, #1
 8000a1c:	b29a      	uxth	r2, r3
 8000a1e:	4b1d      	ldr	r3, [pc, #116]	@ (8000a94 <mtrCtrl_chkErrSt+0xb4>)
 8000a20:	829a      	strh	r2, [r3, #20]

            if (vMotorCtrl_manager.overCurr_cnt >= MTRCTRL_OVERCURR_MAXCNT)
 8000a22:	4b1c      	ldr	r3, [pc, #112]	@ (8000a94 <mtrCtrl_chkErrSt+0xb4>)
 8000a24:	8a9b      	ldrh	r3, [r3, #20]
 8000a26:	f5b3 7f7a 	cmp.w	r3, #1000	@ 0x3e8
 8000a2a:	d32b      	bcc.n	8000a84 <mtrCtrl_chkErrSt+0xa4>
            {
                vMotorCtrl_manager.errCode = MTRCTRL_ERR_OVER_CURRENT;
 8000a2c:	4b19      	ldr	r3, [pc, #100]	@ (8000a94 <mtrCtrl_chkErrSt+0xb4>)
 8000a2e:	2201      	movs	r2, #1
 8000a30:	771a      	strb	r2, [r3, #28]
        }
        else if (vMotorCtrl_manager.errCode == MTRCTRL_ERR_OVER_CURRENT)
        {
            vMotorCtrl_manager.errCode = MTRCTRL_ERR_OVER_CURRENT; // 이미 과전류 에러가 기록되어 있으면 유지 (과전류 상태가 지속되고 있다고 판단)
        }
        break;
 8000a32:	e027      	b.n	8000a84 <mtrCtrl_chkErrSt+0xa4>
        else if (vMotorCtrl_manager.errCode == MTRCTRL_ERR_OVER_CURRENT)
 8000a34:	4b17      	ldr	r3, [pc, #92]	@ (8000a94 <mtrCtrl_chkErrSt+0xb4>)
 8000a36:	7f1b      	ldrb	r3, [r3, #28]
 8000a38:	2b01      	cmp	r3, #1
 8000a3a:	d123      	bne.n	8000a84 <mtrCtrl_chkErrSt+0xa4>
            vMotorCtrl_manager.errCode = MTRCTRL_ERR_OVER_CURRENT; // 이미 과전류 에러가 기록되어 있으면 유지 (과전류 상태가 지속되고 있다고 판단)
 8000a3c:	4b15      	ldr	r3, [pc, #84]	@ (8000a94 <mtrCtrl_chkErrSt+0xb4>)
 8000a3e:	2201      	movs	r2, #1
 8000a40:	771a      	strb	r2, [r3, #28]
        break;
 8000a42:	e01f      	b.n	8000a84 <mtrCtrl_chkErrSt+0xa4>

    case MTRCTRL_ERR_MOS_HOT:

		if (NTC_getHeat_st() == true)
 8000a44:	f000 f930 	bl	8000ca8 <NTC_getHeat_st>
 8000a48:	4603      	mov	r3, r0
 8000a4a:	2b00      	cmp	r3, #0
 8000a4c:	d003      	beq.n	8000a56 <mtrCtrl_chkErrSt+0x76>
			vMotorCtrl_manager.errCode = MTRCTRL_ERR_MOS_HOT; // 모스 과열 에러는 가장 심각하므로 무조건 기록
 8000a4e:	4b11      	ldr	r3, [pc, #68]	@ (8000a94 <mtrCtrl_chkErrSt+0xb4>)
 8000a50:	2202      	movs	r2, #2
 8000a52:	771a      	strb	r2, [r3, #28]
            if (NTC_getHeat_st() == true)
                vMotorCtrl_manager.errCode = MTRCTRL_ERR_MOS_HOT; // 모스 과열 에러는 가장 심각하므로 무조건 기록
            else if (vMotorCtrl_manager.errCode == MTRCTRL_ERR_MOS_HOT)
                vMotorCtrl_manager.errCode = MTRCTRL_ERR_NONE; // 과열이 감지되지 않으면 에러 해제
        }*/
        break;
 8000a54:	e018      	b.n	8000a88 <mtrCtrl_chkErrSt+0xa8>
		else if (vMotorCtrl_manager.errCode == MTRCTRL_ERR_MOS_HOT)
 8000a56:	4b0f      	ldr	r3, [pc, #60]	@ (8000a94 <mtrCtrl_chkErrSt+0xb4>)
 8000a58:	7f1b      	ldrb	r3, [r3, #28]
 8000a5a:	2b02      	cmp	r3, #2
 8000a5c:	d114      	bne.n	8000a88 <mtrCtrl_chkErrSt+0xa8>
			vMotorCtrl_manager.errCode = MTRCTRL_ERR_NONE; // 과열이 감지되지 않으면 에러 해제
 8000a5e:	4b0d      	ldr	r3, [pc, #52]	@ (8000a94 <mtrCtrl_chkErrSt+0xb4>)
 8000a60:	2205      	movs	r2, #5
 8000a62:	771a      	strb	r2, [r3, #28]
        break;
 8000a64:	e010      	b.n	8000a88 <mtrCtrl_chkErrSt+0xa8>

    case MTRCTRL_ERR_UNDER_VOLT:

    	if(dcVolt_getLowVolt_st() == true)
 8000a66:	f000 f9b9 	bl	8000ddc <dcVolt_getLowVolt_st>
 8000a6a:	4603      	mov	r3, r0
 8000a6c:	2b00      	cmp	r3, #0
 8000a6e:	d003      	beq.n	8000a78 <mtrCtrl_chkErrSt+0x98>
    		vMotorCtrl_manager.errCode = MTRCTRL_ERR_UNDER_VOLT;
 8000a70:	4b08      	ldr	r3, [pc, #32]	@ (8000a94 <mtrCtrl_chkErrSt+0xb4>)
 8000a72:	2204      	movs	r2, #4
 8000a74:	771a      	strb	r2, [r3, #28]
            if (dcVolt_getLowVolt_st() == true)
                vMotorCtrl_manager.errCode = MTRCTRL_ERR_UNDER_VOLT; // 저전압 에러는 과전압보다 심각하므로 덮어쓰기 허용
            else
                vMotorCtrl_manager.errCode = MTRCTRL_ERR_NONE; // 저전압이 감지되지 않으면 에러 해제
        }*/
        break;
 8000a76:	e008      	b.n	8000a8a <mtrCtrl_chkErrSt+0xaa>
    		vMotorCtrl_manager.errCode = MTRCTRL_ERR_NONE;
 8000a78:	4b06      	ldr	r3, [pc, #24]	@ (8000a94 <mtrCtrl_chkErrSt+0xb4>)
 8000a7a:	2205      	movs	r2, #5
 8000a7c:	771a      	strb	r2, [r3, #28]
        break;
 8000a7e:	e004      	b.n	8000a8a <mtrCtrl_chkErrSt+0xaa>
        // todo : 과전압 에러 체크 로직 추가 (예: dcVolt_getOverVolt_st() 함수 구현 후 호출)
        break;

    default:
        // do nothing
        break;
 8000a80:	bf00      	nop
 8000a82:	e002      	b.n	8000a8a <mtrCtrl_chkErrSt+0xaa>
        break;
 8000a84:	bf00      	nop
 8000a86:	e000      	b.n	8000a8a <mtrCtrl_chkErrSt+0xaa>
        break;
 8000a88:	bf00      	nop
    }
}
 8000a8a:	bf00      	nop
 8000a8c:	3708      	adds	r7, #8
 8000a8e:	46bd      	mov	sp, r7
 8000a90:	bd80      	pop	{r7, pc}
 8000a92:	bf00      	nop
 8000a94:	2000005c 	.word	0x2000005c

08000a98 <mtrCtrl_getErrCode>:

typMtrCtrl_errCode mtrCtrl_getErrCode(void)
{
 8000a98:	b480      	push	{r7}
 8000a9a:	af00      	add	r7, sp, #0
    return vMotorCtrl_manager.errCode;
 8000a9c:	4b03      	ldr	r3, [pc, #12]	@ (8000aac <mtrCtrl_getErrCode+0x14>)
 8000a9e:	7f1b      	ldrb	r3, [r3, #28]
}
 8000aa0:	4618      	mov	r0, r3
 8000aa2:	46bd      	mov	sp, r7
 8000aa4:	f85d 7b04 	ldr.w	r7, [sp], #4
 8000aa8:	4770      	bx	lr
 8000aaa:	bf00      	nop
 8000aac:	2000005c 	.word	0x2000005c

08000ab0 <mtrCtrl_getAppInit_flg>:

bool mtrCtrl_getAppInit_flg(void)
{
 8000ab0:	b480      	push	{r7}
 8000ab2:	af00      	add	r7, sp, #0
    return vMotorCtrl_manager.app_init;
 8000ab4:	4b03      	ldr	r3, [pc, #12]	@ (8000ac4 <mtrCtrl_getAppInit_flg+0x14>)
 8000ab6:	7fdb      	ldrb	r3, [r3, #31]
}
 8000ab8:	4618      	mov	r0, r3
 8000aba:	46bd      	mov	sp, r7
 8000abc:	f85d 7b04 	ldr.w	r7, [sp], #4
 8000ac0:	4770      	bx	lr
 8000ac2:	bf00      	nop
 8000ac4:	2000005c 	.word	0x2000005c

08000ac8 <mtrCtrl_setAppInit_flg>:

void mtrCtrl_setAppInit_flg(void)
{
 8000ac8:	b480      	push	{r7}
 8000aca:	af00      	add	r7, sp, #0
    vMotorCtrl_manager.app_init = true;
 8000acc:	4b03      	ldr	r3, [pc, #12]	@ (8000adc <mtrCtrl_setAppInit_flg+0x14>)
 8000ace:	2201      	movs	r2, #1
 8000ad0:	77da      	strb	r2, [r3, #31]
}
 8000ad2:	bf00      	nop
 8000ad4:	46bd      	mov	sp, r7
 8000ad6:	f85d 7b04 	ldr.w	r7, [sp], #4
 8000ada:	4770      	bx	lr
 8000adc:	2000005c 	.word	0x2000005c

08000ae0 <throttle_init>:
typNTC_handle vNTC_handler;
typSensingCurr_handle vSensingCurr_handler;


void throttle_init(void)
{
 8000ae0:	b480      	push	{r7}
 8000ae2:	af00      	add	r7, sp, #0
    vThrottle_handler.rawVal = 0;
 8000ae4:	4b0c      	ldr	r3, [pc, #48]	@ (8000b18 <throttle_init+0x38>)
 8000ae6:	2200      	movs	r2, #0
 8000ae8:	601a      	str	r2, [r3, #0]
    vThrottle_handler.rawVolt_Val = 0;
 8000aea:	4b0b      	ldr	r3, [pc, #44]	@ (8000b18 <throttle_init+0x38>)
 8000aec:	f04f 0200 	mov.w	r2, #0
 8000af0:	605a      	str	r2, [r3, #4]
    vThrottle_handler.val_is_validate = false;
 8000af2:	4b09      	ldr	r3, [pc, #36]	@ (8000b18 <throttle_init+0x38>)
 8000af4:	2200      	movs	r2, #0
 8000af6:	721a      	strb	r2, [r3, #8]

    vThrottle_handler.refVal = 0;
 8000af8:	4b07      	ldr	r3, [pc, #28]	@ (8000b18 <throttle_init+0x38>)
 8000afa:	f04f 0200 	mov.w	r2, #0
 8000afe:	60da      	str	r2, [r3, #12]
    vThrottle_handler.rampVal = 0;
 8000b00:	4b05      	ldr	r3, [pc, #20]	@ (8000b18 <throttle_init+0x38>)
 8000b02:	f04f 0200 	mov.w	r2, #0
 8000b06:	611a      	str	r2, [r3, #16]
    vThrottle_handler.CCR_refVal = 0;
 8000b08:	4b03      	ldr	r3, [pc, #12]	@ (8000b18 <throttle_init+0x38>)
 8000b0a:	2200      	movs	r2, #0
 8000b0c:	615a      	str	r2, [r3, #20]
}
 8000b0e:	bf00      	nop
 8000b10:	46bd      	mov	sp, r7
 8000b12:	f85d 7b04 	ldr.w	r7, [sp], #4
 8000b16:	4770      	bx	lr
 8000b18:	200000a0 	.word	0x200000a0

08000b1c <throttle_sensing>:

static void throttle_sensing(void)
{
 8000b1c:	b580      	push	{r7, lr}
 8000b1e:	af00      	add	r7, sp, #0
    // 1. adc로 스로틀 raw값 읽기
    vThrottle_handler.rawVal = adc_conv_rawThrottle_polling();
 8000b20:	f001 fbe6 	bl	80022f0 <adc_conv_rawThrottle_polling>
 8000b24:	4603      	mov	r3, r0
 8000b26:	461a      	mov	r2, r3
 8000b28:	4b16      	ldr	r3, [pc, #88]	@ (8000b84 <throttle_sensing+0x68>)
 8000b2a:	601a      	str	r2, [r3, #0]

    // 2. adc raw값을 전압값으로 변환
    vThrottle_handler.rawVolt_Val = (float)vThrottle_handler.rawVal * SENSING_ADC_2_VOLT;
 8000b2c:	4b15      	ldr	r3, [pc, #84]	@ (8000b84 <throttle_sensing+0x68>)
 8000b2e:	681b      	ldr	r3, [r3, #0]
 8000b30:	ee07 3a90 	vmov	s15, r3
 8000b34:	eef8 7a67 	vcvt.f32.u32	s15, s15
 8000b38:	ed9f 7a13 	vldr	s14, [pc, #76]	@ 8000b88 <throttle_sensing+0x6c>
 8000b3c:	ee67 7a87 	vmul.f32	s15, s15, s14
 8000b40:	4b10      	ldr	r3, [pc, #64]	@ (8000b84 <throttle_sensing+0x68>)
 8000b42:	edc3 7a01 	vstr	s15, [r3, #4]

    // 3. adc 노이즈를 고려한 히스테리시스 처리
    if(vThrottle_handler.rawVolt_Val < THROTTLE_OFF_VOLT)
 8000b46:	4b0f      	ldr	r3, [pc, #60]	@ (8000b84 <throttle_sensing+0x68>)
 8000b48:	edd3 7a01 	vldr	s15, [r3, #4]
 8000b4c:	eeb7 7a00 	vmov.f32	s14, #112	@ 0x3f800000  1.0
 8000b50:	eef4 7ac7 	vcmpe.f32	s15, s14
 8000b54:	eef1 fa10 	vmrs	APSR_nzcv, fpscr
 8000b58:	d503      	bpl.n	8000b62 <throttle_sensing+0x46>
    {
        vThrottle_handler.val_is_validate = false;
 8000b5a:	4b0a      	ldr	r3, [pc, #40]	@ (8000b84 <throttle_sensing+0x68>)
 8000b5c:	2200      	movs	r2, #0
 8000b5e:	721a      	strb	r2, [r3, #8]
    }
    else if(vThrottle_handler.rawVolt_Val > THROTTLE_ON_VOLT)
    {
        vThrottle_handler.val_is_validate = true;
    }
}
 8000b60:	e00d      	b.n	8000b7e <throttle_sensing+0x62>
    else if(vThrottle_handler.rawVolt_Val > THROTTLE_ON_VOLT)
 8000b62:	4b08      	ldr	r3, [pc, #32]	@ (8000b84 <throttle_sensing+0x68>)
 8000b64:	edd3 7a01 	vldr	s15, [r3, #4]
 8000b68:	ed9f 7a08 	vldr	s14, [pc, #32]	@ 8000b8c <throttle_sensing+0x70>
 8000b6c:	eef4 7ac7 	vcmpe.f32	s15, s14
 8000b70:	eef1 fa10 	vmrs	APSR_nzcv, fpscr
 8000b74:	dc00      	bgt.n	8000b78 <throttle_sensing+0x5c>
}
 8000b76:	e002      	b.n	8000b7e <throttle_sensing+0x62>
        vThrottle_handler.val_is_validate = true;
 8000b78:	4b02      	ldr	r3, [pc, #8]	@ (8000b84 <throttle_sensing+0x68>)
 8000b7a:	2201      	movs	r2, #1
 8000b7c:	721a      	strb	r2, [r3, #8]
}
 8000b7e:	bf00      	nop
 8000b80:	bd80      	pop	{r7, pc}
 8000b82:	bf00      	nop
 8000b84:	200000a0 	.word	0x200000a0
 8000b88:	3a534067 	.word	0x3a534067
 8000b8c:	3f866666 	.word	0x3f866666

08000b90 <throttle_postProcess>:

static void throttle_postProcess(void)
{
 8000b90:	b580      	push	{r7, lr}
 8000b92:	af00      	add	r7, sp, #0
    // 4. 스로틀 유효값 처리 및 제어신호 변환
    if(vThrottle_handler.val_is_validate == false)
 8000b94:	4b16      	ldr	r3, [pc, #88]	@ (8000bf0 <throttle_postProcess+0x60>)
 8000b96:	7a1b      	ldrb	r3, [r3, #8]
 8000b98:	f083 0301 	eor.w	r3, r3, #1
 8000b9c:	b2db      	uxtb	r3, r3
 8000b9e:	2b00      	cmp	r3, #0
 8000ba0:	d008      	beq.n	8000bb4 <throttle_postProcess+0x24>
    {
        vThrottle_handler.refVal = 0.0f;
 8000ba2:	4b13      	ldr	r3, [pc, #76]	@ (8000bf0 <throttle_postProcess+0x60>)
 8000ba4:	f04f 0200 	mov.w	r2, #0
 8000ba8:	60da      	str	r2, [r3, #12]
        vThrottle_handler.rampVal = 0.0f;
 8000baa:	4b11      	ldr	r3, [pc, #68]	@ (8000bf0 <throttle_postProcess+0x60>)
 8000bac:	f04f 0200 	mov.w	r2, #0
 8000bb0:	611a      	str	r2, [r3, #16]
 8000bb2:	e011      	b.n	8000bd8 <throttle_postProcess+0x48>
    }
    else
    {
        vThrottle_handler.refVal = THROTTLE_RAW_VOLT_2_PWM_DUTY_CNT(vThrottle_handler.rawVolt_Val);
 8000bb4:	4b0e      	ldr	r3, [pc, #56]	@ (8000bf0 <throttle_postProcess+0x60>)
 8000bb6:	edd3 7a01 	vldr	s15, [r3, #4]
 8000bba:	ed9f 7a0e 	vldr	s14, [pc, #56]	@ 8000bf4 <throttle_postProcess+0x64>
 8000bbe:	ee67 7a87 	vmul.f32	s15, s15, s14
 8000bc2:	ed9f 7a0d 	vldr	s14, [pc, #52]	@ 8000bf8 <throttle_postProcess+0x68>
 8000bc6:	ee77 7ac7 	vsub.f32	s15, s15, s14
 8000bca:	ed9f 7a0c 	vldr	s14, [pc, #48]	@ 8000bfc <throttle_postProcess+0x6c>
 8000bce:	ee77 7a87 	vadd.f32	s15, s15, s14
 8000bd2:	4b07      	ldr	r3, [pc, #28]	@ (8000bf0 <throttle_postProcess+0x60>)
 8000bd4:	edc3 7a03 	vstr	s15, [r3, #12]
    }

    // 5. 스로틀 램프함수 처리
    utils_ramp2Tgt(vThrottle_handler.refVal, &vThrottle_handler.rampVal, THROTTLE_RAMP_UNIT);
 8000bd8:	4b05      	ldr	r3, [pc, #20]	@ (8000bf0 <throttle_postProcess+0x60>)
 8000bda:	edd3 7a03 	vldr	s15, [r3, #12]
 8000bde:	eef0 0a08 	vmov.f32	s1, #8	@ 0x40400000  3.0
 8000be2:	4807      	ldr	r0, [pc, #28]	@ (8000c00 <throttle_postProcess+0x70>)
 8000be4:	eeb0 0a67 	vmov.f32	s0, s15
 8000be8:	f002 fd78 	bl	80036dc <utils_ramp2Tgt>
}
 8000bec:	bf00      	nop
 8000bee:	bd80      	pop	{r7, pc}
 8000bf0:	200000a0 	.word	0x200000a0
 8000bf4:	45548000 	.word	0x45548000
 8000bf8:	455d4000 	.word	0x455d4000
 8000bfc:	447a0000 	.word	0x447a0000
 8000c00:	200000b0 	.word	0x200000b0

08000c04 <throttle_update_proc>:

// adc 값을 읽어서 사용하기 적절한 pwm신호로 출력하여 모터제어에 사용할 수 있게 함
void throttle_update_proc(void)
{
 8000c04:	b580      	push	{r7, lr}
 8000c06:	b082      	sub	sp, #8
 8000c08:	af00      	add	r7, sp, #0
    uint32_t tempCCR_Val;
    throttle_sensing();
 8000c0a:	f7ff ff87 	bl	8000b1c <throttle_sensing>
    throttle_postProcess();
 8000c0e:	f7ff ffbf 	bl	8000b90 <throttle_postProcess>

    tempCCR_Val = (uint32_t)(vThrottle_handler.rampVal);
 8000c12:	4b0c      	ldr	r3, [pc, #48]	@ (8000c44 <throttle_update_proc+0x40>)
 8000c14:	edd3 7a04 	vldr	s15, [r3, #16]
 8000c18:	eefc 7ae7 	vcvt.u32.f32	s15, s15
 8000c1c:	ee17 3a90 	vmov	r3, s15
 8000c20:	607b      	str	r3, [r7, #4]

    // 마진 확보하여 최대 듀티 방지
    if(tempCCR_Val > THROTTLE_CCR_MAXVAL)
 8000c22:	687b      	ldr	r3, [r7, #4]
 8000c24:	f241 42b3 	movw	r2, #5299	@ 0x14b3
 8000c28:	4293      	cmp	r3, r2
 8000c2a:	d904      	bls.n	8000c36 <throttle_update_proc+0x32>
    {
        vThrottle_handler.CCR_refVal = THROTTLE_CCR_MAXVAL;
 8000c2c:	4b05      	ldr	r3, [pc, #20]	@ (8000c44 <throttle_update_proc+0x40>)
 8000c2e:	f241 42b3 	movw	r2, #5299	@ 0x14b3
 8000c32:	615a      	str	r2, [r3, #20]
    }
    else
    {
        vThrottle_handler.CCR_refVal = tempCCR_Val;
    }
}
 8000c34:	e002      	b.n	8000c3c <throttle_update_proc+0x38>
        vThrottle_handler.CCR_refVal = tempCCR_Val;
 8000c36:	4a03      	ldr	r2, [pc, #12]	@ (8000c44 <throttle_update_proc+0x40>)
 8000c38:	687b      	ldr	r3, [r7, #4]
 8000c3a:	6153      	str	r3, [r2, #20]
}
 8000c3c:	bf00      	nop
 8000c3e:	3708      	adds	r7, #8
 8000c40:	46bd      	mov	sp, r7
 8000c42:	bd80      	pop	{r7, pc}
 8000c44:	200000a0 	.word	0x200000a0

08000c48 <throttle_get_validateFlg>:

bool throttle_get_validateFlg(void)
{
 8000c48:	b480      	push	{r7}
 8000c4a:	af00      	add	r7, sp, #0
	return vThrottle_handler.val_is_validate;
 8000c4c:	4b03      	ldr	r3, [pc, #12]	@ (8000c5c <throttle_get_validateFlg+0x14>)
 8000c4e:	7a1b      	ldrb	r3, [r3, #8]
}
 8000c50:	4618      	mov	r0, r3
 8000c52:	46bd      	mov	sp, r7
 8000c54:	f85d 7b04 	ldr.w	r7, [sp], #4
 8000c58:	4770      	bx	lr
 8000c5a:	bf00      	nop
 8000c5c:	200000a0 	.word	0x200000a0

08000c60 <throttle_get_refVolt>:

float throttle_get_refVolt(void)
{
 8000c60:	b480      	push	{r7}
 8000c62:	af00      	add	r7, sp, #0
    return vThrottle_handler.rawVolt_Val;
 8000c64:	4b04      	ldr	r3, [pc, #16]	@ (8000c78 <throttle_get_refVolt+0x18>)
 8000c66:	685b      	ldr	r3, [r3, #4]
 8000c68:	ee07 3a90 	vmov	s15, r3
}
 8000c6c:	eeb0 0a67 	vmov.f32	s0, s15
 8000c70:	46bd      	mov	sp, r7
 8000c72:	f85d 7b04 	ldr.w	r7, [sp], #4
 8000c76:	4770      	bx	lr
 8000c78:	200000a0 	.word	0x200000a0

08000c7c <NTC_init>:
{
    return vThrottle_handler.CCR_refVal;
}

void NTC_init(void)
{
 8000c7c:	b480      	push	{r7}
 8000c7e:	af00      	add	r7, sp, #0
    vNTC_handler.rawVal = 0;
 8000c80:	4b07      	ldr	r3, [pc, #28]	@ (8000ca0 <NTC_init+0x24>)
 8000c82:	2200      	movs	r2, #0
 8000c84:	601a      	str	r2, [r3, #0]
    vNTC_handler.rawVolt_Val = 0;
 8000c86:	4b06      	ldr	r3, [pc, #24]	@ (8000ca0 <NTC_init+0x24>)
 8000c88:	f04f 0200 	mov.w	r2, #0
 8000c8c:	605a      	str	r2, [r3, #4]
    vNTC_handler.is_mosOverheat = false;
 8000c8e:	4b04      	ldr	r3, [pc, #16]	@ (8000ca0 <NTC_init+0x24>)
 8000c90:	2200      	movs	r2, #0
 8000c92:	731a      	strb	r2, [r3, #12]
}
 8000c94:	bf00      	nop
 8000c96:	46bd      	mov	sp, r7
 8000c98:	f85d 7b04 	ldr.w	r7, [sp], #4
 8000c9c:	4770      	bx	lr
 8000c9e:	bf00      	nop
 8000ca0:	200000c4 	.word	0x200000c4
 8000ca4:	00000000 	.word	0x00000000

08000ca8 <NTC_getHeat_st>:
{
    return vNTC_handler.temper;
}

bool NTC_getHeat_st(void)
{
 8000ca8:	b580      	push	{r7, lr}
 8000caa:	af00      	add	r7, sp, #0
    vNTC_handler.rawVal = adc_conv_rawNTC_polling();
 8000cac:	f001 faea 	bl	8002284 <adc_conv_rawNTC_polling>
 8000cb0:	4603      	mov	r3, r0
 8000cb2:	461a      	mov	r2, r3
 8000cb4:	4b3a      	ldr	r3, [pc, #232]	@ (8000da0 <NTC_getHeat_st+0xf8>)
 8000cb6:	601a      	str	r2, [r3, #0]
    vNTC_handler.rawVolt_Val = (float)vNTC_handler.rawVal * SENSING_ADC_2_VOLT;
 8000cb8:	4b39      	ldr	r3, [pc, #228]	@ (8000da0 <NTC_getHeat_st+0xf8>)
 8000cba:	681b      	ldr	r3, [r3, #0]
 8000cbc:	ee07 3a90 	vmov	s15, r3
 8000cc0:	eef8 7a67 	vcvt.f32.u32	s15, s15
 8000cc4:	ed9f 7a37 	vldr	s14, [pc, #220]	@ 8000da4 <NTC_getHeat_st+0xfc>
 8000cc8:	ee67 7a87 	vmul.f32	s15, s15, s14
 8000ccc:	4b34      	ldr	r3, [pc, #208]	@ (8000da0 <NTC_getHeat_st+0xf8>)
 8000cce:	edc3 7a01 	vstr	s15, [r3, #4]
    vNTC_handler.temper = NTC_VOLT_2_TEMPER(vNTC_handler.rawVolt_Val );
 8000cd2:	4b33      	ldr	r3, [pc, #204]	@ (8000da0 <NTC_getHeat_st+0xf8>)
 8000cd4:	edd3 7a01 	vldr	s15, [r3, #4]
 8000cd8:	ed9f 7a33 	vldr	s14, [pc, #204]	@ 8000da8 <NTC_getHeat_st+0x100>
 8000cdc:	ee27 7a87 	vmul.f32	s14, s15, s14
 8000ce0:	4b2f      	ldr	r3, [pc, #188]	@ (8000da0 <NTC_getHeat_st+0xf8>)
 8000ce2:	edd3 7a01 	vldr	s15, [r3, #4]
 8000ce6:	ee27 7a27 	vmul.f32	s14, s14, s15
 8000cea:	4b2d      	ldr	r3, [pc, #180]	@ (8000da0 <NTC_getHeat_st+0xf8>)
 8000cec:	edd3 7a01 	vldr	s15, [r3, #4]
 8000cf0:	ee67 7a27 	vmul.f32	s15, s14, s15
 8000cf4:	eeb7 6ae7 	vcvt.f64.f32	d6, s15
 8000cf8:	4b29      	ldr	r3, [pc, #164]	@ (8000da0 <NTC_getHeat_st+0xf8>)
 8000cfa:	edd3 7a01 	vldr	s15, [r3, #4]
 8000cfe:	eeb7 7ae7 	vcvt.f64.f32	d7, s15
 8000d02:	ed9f 5b21 	vldr	d5, [pc, #132]	@ 8000d88 <NTC_getHeat_st+0xe0>
 8000d06:	ee27 5b05 	vmul.f64	d5, d7, d5
 8000d0a:	4b25      	ldr	r3, [pc, #148]	@ (8000da0 <NTC_getHeat_st+0xf8>)
 8000d0c:	edd3 7a01 	vldr	s15, [r3, #4]
 8000d10:	eeb7 7ae7 	vcvt.f64.f32	d7, s15
 8000d14:	ee25 7b07 	vmul.f64	d7, d5, d7
 8000d18:	ee36 6b07 	vadd.f64	d6, d6, d7
 8000d1c:	4b20      	ldr	r3, [pc, #128]	@ (8000da0 <NTC_getHeat_st+0xf8>)
 8000d1e:	edd3 7a01 	vldr	s15, [r3, #4]
 8000d22:	eeb7 7ae7 	vcvt.f64.f32	d7, s15
 8000d26:	ed9f 5b1a 	vldr	d5, [pc, #104]	@ 8000d90 <NTC_getHeat_st+0xe8>
 8000d2a:	ee27 7b05 	vmul.f64	d7, d7, d5
 8000d2e:	ee36 7b47 	vsub.f64	d7, d6, d7
 8000d32:	ed9f 6b19 	vldr	d6, [pc, #100]	@ 8000d98 <NTC_getHeat_st+0xf0>
 8000d36:	ee37 7b06 	vadd.f64	d7, d7, d6
 8000d3a:	eef7 7bc7 	vcvt.f32.f64	s15, d7
 8000d3e:	4b18      	ldr	r3, [pc, #96]	@ (8000da0 <NTC_getHeat_st+0xf8>)
 8000d40:	edc3 7a02 	vstr	s15, [r3, #8]

    if(vNTC_handler.temper > NTC_OVERHEAT_CELCIUS)
 8000d44:	4b16      	ldr	r3, [pc, #88]	@ (8000da0 <NTC_getHeat_st+0xf8>)
 8000d46:	edd3 7a02 	vldr	s15, [r3, #8]
 8000d4a:	ed9f 7a18 	vldr	s14, [pc, #96]	@ 8000dac <NTC_getHeat_st+0x104>
 8000d4e:	eef4 7ac7 	vcmpe.f32	s15, s14
 8000d52:	eef1 fa10 	vmrs	APSR_nzcv, fpscr
 8000d56:	dd03      	ble.n	8000d60 <NTC_getHeat_st+0xb8>
    {
        vNTC_handler.is_mosOverheat = true;
 8000d58:	4b11      	ldr	r3, [pc, #68]	@ (8000da0 <NTC_getHeat_st+0xf8>)
 8000d5a:	2201      	movs	r2, #1
 8000d5c:	731a      	strb	r2, [r3, #12]
 8000d5e:	e00c      	b.n	8000d7a <NTC_getHeat_st+0xd2>
    }
    else if(vNTC_handler.temper < NTC_NORMAL_CELCIUS)
 8000d60:	4b0f      	ldr	r3, [pc, #60]	@ (8000da0 <NTC_getHeat_st+0xf8>)
 8000d62:	edd3 7a02 	vldr	s15, [r3, #8]
 8000d66:	ed9f 7a12 	vldr	s14, [pc, #72]	@ 8000db0 <NTC_getHeat_st+0x108>
 8000d6a:	eef4 7ac7 	vcmpe.f32	s15, s14
 8000d6e:	eef1 fa10 	vmrs	APSR_nzcv, fpscr
 8000d72:	d502      	bpl.n	8000d7a <NTC_getHeat_st+0xd2>
    {
        vNTC_handler.is_mosOverheat = false;
 8000d74:	4b0a      	ldr	r3, [pc, #40]	@ (8000da0 <NTC_getHeat_st+0xf8>)
 8000d76:	2200      	movs	r2, #0
 8000d78:	731a      	strb	r2, [r3, #12]
    }

    return vNTC_handler.is_mosOverheat;
 8000d7a:	4b09      	ldr	r3, [pc, #36]	@ (8000da0 <NTC_getHeat_st+0xf8>)
 8000d7c:	7b1b      	ldrb	r3, [r3, #12]
}
 8000d7e:	4618      	mov	r0, r3
 8000d80:	bd80      	pop	{r7, pc}
 8000d82:	bf00      	nop
 8000d84:	f3af 8000 	nop.w
 8000d88:	a3d70a3d 	.word	0xa3d70a3d
 8000d8c:	404f9d70 	.word	0x404f9d70
 8000d90:	d70a3d71 	.word	0xd70a3d71
 8000d94:	4062a0a3 	.word	0x4062a0a3
 8000d98:	40000000 	.word	0x40000000
 8000d9c:	4066bf0a 	.word	0x4066bf0a
 8000da0:	200000c4 	.word	0x200000c4
 8000da4:	3a534067 	.word	0x3a534067
 8000da8:	c137ae14 	.word	0xc137ae14
 8000dac:	42c80000 	.word	0x42c80000
 8000db0:	42b40000 	.word	0x42b40000

08000db4 <dcVolt_init>:

void dcVolt_init(void)
{
 8000db4:	b480      	push	{r7}
 8000db6:	af00      	add	r7, sp, #0
    vDcVolt_handler.rawVal = 0;
 8000db8:	4b07      	ldr	r3, [pc, #28]	@ (8000dd8 <dcVolt_init+0x24>)
 8000dba:	2200      	movs	r2, #0
 8000dbc:	601a      	str	r2, [r3, #0]
    vDcVolt_handler.volt = 0;
 8000dbe:	4b06      	ldr	r3, [pc, #24]	@ (8000dd8 <dcVolt_init+0x24>)
 8000dc0:	f04f 0200 	mov.w	r2, #0
 8000dc4:	605a      	str	r2, [r3, #4]
    vDcVolt_handler.is_lowVolt = false;
 8000dc6:	4b04      	ldr	r3, [pc, #16]	@ (8000dd8 <dcVolt_init+0x24>)
 8000dc8:	2200      	movs	r2, #0
 8000dca:	721a      	strb	r2, [r3, #8]
}
 8000dcc:	bf00      	nop
 8000dce:	46bd      	mov	sp, r7
 8000dd0:	f85d 7b04 	ldr.w	r7, [sp], #4
 8000dd4:	4770      	bx	lr
 8000dd6:	bf00      	nop
 8000dd8:	200000b8 	.word	0x200000b8

08000ddc <dcVolt_getLowVolt_st>:
{
    return vDcVolt_handler.volt;
}

bool dcVolt_getLowVolt_st(void)
{
 8000ddc:	b580      	push	{r7, lr}
 8000dde:	af00      	add	r7, sp, #0
    vDcVolt_handler.rawVal = adc_conv_rawVdc_polling();
 8000de0:	f001 fabc 	bl	800235c <adc_conv_rawVdc_polling>
 8000de4:	4603      	mov	r3, r0
 8000de6:	461a      	mov	r2, r3
 8000de8:	4b13      	ldr	r3, [pc, #76]	@ (8000e38 <dcVolt_getLowVolt_st+0x5c>)
 8000dea:	601a      	str	r2, [r3, #0]
    vDcVolt_handler.volt = DCVOLT_VOLT_2_ACTUAL((float)vDcVolt_handler.rawVal * SENSING_ADC_2_VOLT);
 8000dec:	4b12      	ldr	r3, [pc, #72]	@ (8000e38 <dcVolt_getLowVolt_st+0x5c>)
 8000dee:	681b      	ldr	r3, [r3, #0]
 8000df0:	ee07 3a90 	vmov	s15, r3
 8000df4:	eef8 7a67 	vcvt.f32.u32	s15, s15
 8000df8:	ed9f 7a10 	vldr	s14, [pc, #64]	@ 8000e3c <dcVolt_getLowVolt_st+0x60>
 8000dfc:	ee27 7a87 	vmul.f32	s14, s15, s14
 8000e00:	eddf 6a0f 	vldr	s13, [pc, #60]	@ 8000e40 <dcVolt_getLowVolt_st+0x64>
 8000e04:	eec7 7a26 	vdiv.f32	s15, s14, s13
 8000e08:	4b0b      	ldr	r3, [pc, #44]	@ (8000e38 <dcVolt_getLowVolt_st+0x5c>)
 8000e0a:	edc3 7a01 	vstr	s15, [r3, #4]

    if(vDcVolt_handler.volt < DC_VOLT_LOW_THRESH)
 8000e0e:	4b0a      	ldr	r3, [pc, #40]	@ (8000e38 <dcVolt_getLowVolt_st+0x5c>)
 8000e10:	edd3 7a01 	vldr	s15, [r3, #4]
 8000e14:	eeb3 7a07 	vmov.f32	s14, #55	@ 0x41b80000  23.0
 8000e18:	eef4 7ac7 	vcmpe.f32	s15, s14
 8000e1c:	eef1 fa10 	vmrs	APSR_nzcv, fpscr
 8000e20:	d503      	bpl.n	8000e2a <dcVolt_getLowVolt_st+0x4e>
    {
        vDcVolt_handler.is_lowVolt = true;
 8000e22:	4b05      	ldr	r3, [pc, #20]	@ (8000e38 <dcVolt_getLowVolt_st+0x5c>)
 8000e24:	2201      	movs	r2, #1
 8000e26:	721a      	strb	r2, [r3, #8]
 8000e28:	e002      	b.n	8000e30 <dcVolt_getLowVolt_st+0x54>
    }
    else
    {
        vDcVolt_handler.is_lowVolt = false;
 8000e2a:	4b03      	ldr	r3, [pc, #12]	@ (8000e38 <dcVolt_getLowVolt_st+0x5c>)
 8000e2c:	2200      	movs	r2, #0
 8000e2e:	721a      	strb	r2, [r3, #8]
    }

    return vDcVolt_handler.is_lowVolt;
 8000e30:	4b01      	ldr	r3, [pc, #4]	@ (8000e38 <dcVolt_getLowVolt_st+0x5c>)
 8000e32:	7a1b      	ldrb	r3, [r3, #8]
}
 8000e34:	4618      	mov	r0, r3
 8000e36:	bd80      	pop	{r7, pc}
 8000e38:	200000b8 	.word	0x200000b8
 8000e3c:	3a534067 	.word	0x3a534067
 8000e40:	3d6af46b 	.word	0x3d6af46b

08000e44 <sensingCurr_init>:

void sensingCurr_init(void)
{
 8000e44:	b580      	push	{r7, lr}
 8000e46:	b084      	sub	sp, #16
 8000e48:	af00      	add	r7, sp, #0
	uint32_t tempArr[IPHASE_CURR_NUM] = {0};
 8000e4a:	463b      	mov	r3, r7
 8000e4c:	2200      	movs	r2, #0
 8000e4e:	601a      	str	r2, [r3, #0]
 8000e50:	605a      	str	r2, [r3, #4]
 8000e52:	609a      	str	r2, [r3, #8]
	adc_getOffsetCalib_val(tempArr);
 8000e54:	463b      	mov	r3, r7
 8000e56:	4618      	mov	r0, r3
 8000e58:	f001 f936 	bl	80020c8 <adc_getOffsetCalib_val>

    for(uint8_t i = 0; i < IPHASE_CURR_NUM; i++)
 8000e5c:	2300      	movs	r3, #0
 8000e5e:	73fb      	strb	r3, [r7, #15]
 8000e60:	e01c      	b.n	8000e9c <sensingCurr_init+0x58>
    {
        vSensingCurr_handler.Iphase[i].rawVal = 0;
 8000e62:	7bfb      	ldrb	r3, [r7, #15]
 8000e64:	4a15      	ldr	r2, [pc, #84]	@ (8000ebc <sensingCurr_init+0x78>)
 8000e66:	011b      	lsls	r3, r3, #4
 8000e68:	4413      	add	r3, r2
 8000e6a:	2200      	movs	r2, #0
 8000e6c:	601a      	str	r2, [r3, #0]
        vSensingCurr_handler.Iphase[i].offset_rawVal = tempArr[i];
 8000e6e:	7bfb      	ldrb	r3, [r7, #15]
 8000e70:	7bf9      	ldrb	r1, [r7, #15]
 8000e72:	009b      	lsls	r3, r3, #2
 8000e74:	3310      	adds	r3, #16
 8000e76:	443b      	add	r3, r7
 8000e78:	f853 2c10 	ldr.w	r2, [r3, #-16]
 8000e7c:	480f      	ldr	r0, [pc, #60]	@ (8000ebc <sensingCurr_init+0x78>)
 8000e7e:	010b      	lsls	r3, r1, #4
 8000e80:	4403      	add	r3, r0
 8000e82:	3304      	adds	r3, #4
 8000e84:	601a      	str	r2, [r3, #0]
        vSensingCurr_handler.Iphase[i].rawCurr_A = 0;
 8000e86:	7bfb      	ldrb	r3, [r7, #15]
 8000e88:	4a0c      	ldr	r2, [pc, #48]	@ (8000ebc <sensingCurr_init+0x78>)
 8000e8a:	011b      	lsls	r3, r3, #4
 8000e8c:	4413      	add	r3, r2
 8000e8e:	3308      	adds	r3, #8
 8000e90:	f04f 0200 	mov.w	r2, #0
 8000e94:	601a      	str	r2, [r3, #0]
    for(uint8_t i = 0; i < IPHASE_CURR_NUM; i++)
 8000e96:	7bfb      	ldrb	r3, [r7, #15]
 8000e98:	3301      	adds	r3, #1
 8000e9a:	73fb      	strb	r3, [r7, #15]
 8000e9c:	7bfb      	ldrb	r3, [r7, #15]
 8000e9e:	2b02      	cmp	r3, #2
 8000ea0:	d9df      	bls.n	8000e62 <sensingCurr_init+0x1e>
    }
    vSensingCurr_handler.is_overCurrent = false;
 8000ea2:	4b06      	ldr	r3, [pc, #24]	@ (8000ebc <sensingCurr_init+0x78>)
 8000ea4:	2200      	movs	r2, #0
 8000ea6:	f883 2034 	strb.w	r2, [r3, #52]	@ 0x34
    vSensingCurr_handler.Iphase_max = 0;
 8000eaa:	4b04      	ldr	r3, [pc, #16]	@ (8000ebc <sensingCurr_init+0x78>)
 8000eac:	f04f 0200 	mov.w	r2, #0
 8000eb0:	631a      	str	r2, [r3, #48]	@ 0x30
}
 8000eb2:	bf00      	nop
 8000eb4:	3710      	adds	r7, #16
 8000eb6:	46bd      	mov	sp, r7
 8000eb8:	bd80      	pop	{r7, pc}
 8000eba:	bf00      	nop
 8000ebc:	200000d4 	.word	0x200000d4

08000ec0 <sensingCurr_getOverCurrent_st>:

bool sensingCurr_getOverCurrent_st(void)
{
 8000ec0:	b590      	push	{r4, r7, lr}
 8000ec2:	b085      	sub	sp, #20
 8000ec4:	af00      	add	r7, sp, #0
    float tempCalibVal;
    int32_t tempRawVal;
    // 1. adc로 전류 raw값 읽기
    vSensingCurr_handler.Iphase[IPHASE_U_IDX].rawVal = adc_conv_rawIus_polling();
 8000ec6:	f001 fa7f 	bl	80023c8 <adc_conv_rawIus_polling>
 8000eca:	4603      	mov	r3, r0
 8000ecc:	461a      	mov	r2, r3
 8000ece:	4b9a      	ldr	r3, [pc, #616]	@ (8001138 <sensingCurr_getOverCurrent_st+0x278>)
 8000ed0:	601a      	str	r2, [r3, #0]
    vSensingCurr_handler.Iphase[IPHASE_V_IDX].rawVal = adc_conv_rawIvs_polling();
 8000ed2:	f001 faa9 	bl	8002428 <adc_conv_rawIvs_polling>
 8000ed6:	4603      	mov	r3, r0
 8000ed8:	461a      	mov	r2, r3
 8000eda:	4b97      	ldr	r3, [pc, #604]	@ (8001138 <sensingCurr_getOverCurrent_st+0x278>)
 8000edc:	611a      	str	r2, [r3, #16]
    vSensingCurr_handler.Iphase[IPHASE_W_IDX].rawVal = adc_conv_rawIws_polling();
 8000ede:	f001 fad5 	bl	800248c <adc_conv_rawIws_polling>
 8000ee2:	4603      	mov	r3, r0
 8000ee4:	461a      	mov	r2, r3
 8000ee6:	4b94      	ldr	r3, [pc, #592]	@ (8001138 <sensingCurr_getOverCurrent_st+0x278>)
 8000ee8:	621a      	str	r2, [r3, #32]

    // 2. raw값을 전류값으로 변환 (예시, 실제로는 센서 특성에 따라 다름)
    for(uint8_t i = 0; i < IPHASE_CURR_NUM; i++)
 8000eea:	2300      	movs	r3, #0
 8000eec:	73fb      	strb	r3, [r7, #15]
 8000eee:	e03c      	b.n	8000f6a <sensingCurr_getOverCurrent_st+0xaa>
    {
        // 2.1 오프셋 보정
        tempRawVal = vSensingCurr_handler.Iphase[i].rawVal;
 8000ef0:	7bfb      	ldrb	r3, [r7, #15]
 8000ef2:	4a91      	ldr	r2, [pc, #580]	@ (8001138 <sensingCurr_getOverCurrent_st+0x278>)
 8000ef4:	011b      	lsls	r3, r3, #4
 8000ef6:	4413      	add	r3, r2
 8000ef8:	681b      	ldr	r3, [r3, #0]
 8000efa:	60bb      	str	r3, [r7, #8]
        tempCalibVal = (float)(tempRawVal - (int32_t)vSensingCurr_handler.Iphase[i].offset_rawVal); // 오프셋 보정
 8000efc:	7bfb      	ldrb	r3, [r7, #15]
 8000efe:	4a8e      	ldr	r2, [pc, #568]	@ (8001138 <sensingCurr_getOverCurrent_st+0x278>)
 8000f00:	011b      	lsls	r3, r3, #4
 8000f02:	4413      	add	r3, r2
 8000f04:	3304      	adds	r3, #4
 8000f06:	681b      	ldr	r3, [r3, #0]
 8000f08:	461a      	mov	r2, r3
 8000f0a:	68bb      	ldr	r3, [r7, #8]
 8000f0c:	1a9b      	subs	r3, r3, r2
 8000f0e:	ee07 3a90 	vmov	s15, r3
 8000f12:	eef8 7ae7 	vcvt.f32.s32	s15, s15
 8000f16:	edc7 7a01 	vstr	s15, [r7, #4]
        
        // 2.2 전류값으로 변환
        vSensingCurr_handler.Iphase[i].rawCurr_A = SENSING_ADC_2_CURR(tempCalibVal);
 8000f1a:	edd7 7a01 	vldr	s15, [r7, #4]
 8000f1e:	ed9f 7a87 	vldr	s14, [pc, #540]	@ 800113c <sensingCurr_getOverCurrent_st+0x27c>
 8000f22:	ee27 7a87 	vmul.f32	s14, s15, s14
 8000f26:	7bfb      	ldrb	r3, [r7, #15]
 8000f28:	eddf 6a85 	vldr	s13, [pc, #532]	@ 8001140 <sensingCurr_getOverCurrent_st+0x280>
 8000f2c:	eec7 7a26 	vdiv.f32	s15, s14, s13
 8000f30:	4a81      	ldr	r2, [pc, #516]	@ (8001138 <sensingCurr_getOverCurrent_st+0x278>)
 8000f32:	011b      	lsls	r3, r3, #4
 8000f34:	4413      	add	r3, r2
 8000f36:	3308      	adds	r3, #8
 8000f38:	edc3 7a00 	vstr	s15, [r3]

        // 2.3 저역통과필터 적용
        vSensingCurr_handler.Iphase[i].filteredCurr_A = utils_LPF_phaseCurr_filter(vSensingCurr_handler.Iphase[i].rawCurr_A);
 8000f3c:	7bfb      	ldrb	r3, [r7, #15]
 8000f3e:	4a7e      	ldr	r2, [pc, #504]	@ (8001138 <sensingCurr_getOverCurrent_st+0x278>)
 8000f40:	011b      	lsls	r3, r3, #4
 8000f42:	4413      	add	r3, r2
 8000f44:	3308      	adds	r3, #8
 8000f46:	edd3 7a00 	vldr	s15, [r3]
 8000f4a:	7bfc      	ldrb	r4, [r7, #15]
 8000f4c:	eeb0 0a67 	vmov.f32	s0, s15
 8000f50:	f002 fb7c 	bl	800364c <utils_LPF_phaseCurr_filter>
 8000f54:	eef0 7a40 	vmov.f32	s15, s0
 8000f58:	4a77      	ldr	r2, [pc, #476]	@ (8001138 <sensingCurr_getOverCurrent_st+0x278>)
 8000f5a:	0123      	lsls	r3, r4, #4
 8000f5c:	4413      	add	r3, r2
 8000f5e:	330c      	adds	r3, #12
 8000f60:	edc3 7a00 	vstr	s15, [r3]
    for(uint8_t i = 0; i < IPHASE_CURR_NUM; i++)
 8000f64:	7bfb      	ldrb	r3, [r7, #15]
 8000f66:	3301      	adds	r3, #1
 8000f68:	73fb      	strb	r3, [r7, #15]
 8000f6a:	7bfb      	ldrb	r3, [r7, #15]
 8000f6c:	2b02      	cmp	r3, #2
 8000f6e:	d9bf      	bls.n	8000ef0 <sensingCurr_getOverCurrent_st+0x30>
    }

    // 3. 최대전류 계산 (방향을 고려하지 않고 절대값으로 최대 전류 계산)
    vSensingCurr_handler.Iphase_max = UTILS_FIND_MAX_VAL(
 8000f70:	4b71      	ldr	r3, [pc, #452]	@ (8001138 <sensingCurr_getOverCurrent_st+0x278>)
 8000f72:	edd3 7a03 	vldr	s15, [r3, #12]
 8000f76:	eef5 7ac0 	vcmpe.f32	s15, #0.0
 8000f7a:	eef1 fa10 	vmrs	APSR_nzcv, fpscr
 8000f7e:	d505      	bpl.n	8000f8c <sensingCurr_getOverCurrent_st+0xcc>
 8000f80:	4b6d      	ldr	r3, [pc, #436]	@ (8001138 <sensingCurr_getOverCurrent_st+0x278>)
 8000f82:	edd3 7a03 	vldr	s15, [r3, #12]
 8000f86:	eeb1 7a67 	vneg.f32	s14, s15
 8000f8a:	e002      	b.n	8000f92 <sensingCurr_getOverCurrent_st+0xd2>
 8000f8c:	4b6a      	ldr	r3, [pc, #424]	@ (8001138 <sensingCurr_getOverCurrent_st+0x278>)
 8000f8e:	ed93 7a03 	vldr	s14, [r3, #12]
 8000f92:	4b69      	ldr	r3, [pc, #420]	@ (8001138 <sensingCurr_getOverCurrent_st+0x278>)
 8000f94:	edd3 7a07 	vldr	s15, [r3, #28]
 8000f98:	eef5 7ac0 	vcmpe.f32	s15, #0.0
 8000f9c:	eef1 fa10 	vmrs	APSR_nzcv, fpscr
 8000fa0:	d505      	bpl.n	8000fae <sensingCurr_getOverCurrent_st+0xee>
 8000fa2:	4b65      	ldr	r3, [pc, #404]	@ (8001138 <sensingCurr_getOverCurrent_st+0x278>)
 8000fa4:	edd3 7a07 	vldr	s15, [r3, #28]
 8000fa8:	eef1 7a67 	vneg.f32	s15, s15
 8000fac:	e002      	b.n	8000fb4 <sensingCurr_getOverCurrent_st+0xf4>
 8000fae:	4b62      	ldr	r3, [pc, #392]	@ (8001138 <sensingCurr_getOverCurrent_st+0x278>)
 8000fb0:	edd3 7a07 	vldr	s15, [r3, #28]
 8000fb4:	eeb4 7ae7 	vcmpe.f32	s14, s15
 8000fb8:	eef1 fa10 	vmrs	APSR_nzcv, fpscr
 8000fbc:	dd4a      	ble.n	8001054 <sensingCurr_getOverCurrent_st+0x194>
 8000fbe:	4b5e      	ldr	r3, [pc, #376]	@ (8001138 <sensingCurr_getOverCurrent_st+0x278>)
 8000fc0:	edd3 7a03 	vldr	s15, [r3, #12]
 8000fc4:	eef5 7ac0 	vcmpe.f32	s15, #0.0
 8000fc8:	eef1 fa10 	vmrs	APSR_nzcv, fpscr
 8000fcc:	d505      	bpl.n	8000fda <sensingCurr_getOverCurrent_st+0x11a>
 8000fce:	4b5a      	ldr	r3, [pc, #360]	@ (8001138 <sensingCurr_getOverCurrent_st+0x278>)
 8000fd0:	edd3 7a03 	vldr	s15, [r3, #12]
 8000fd4:	eeb1 7a67 	vneg.f32	s14, s15
 8000fd8:	e002      	b.n	8000fe0 <sensingCurr_getOverCurrent_st+0x120>
 8000fda:	4b57      	ldr	r3, [pc, #348]	@ (8001138 <sensingCurr_getOverCurrent_st+0x278>)
 8000fdc:	ed93 7a03 	vldr	s14, [r3, #12]
 8000fe0:	4b55      	ldr	r3, [pc, #340]	@ (8001138 <sensingCurr_getOverCurrent_st+0x278>)
 8000fe2:	edd3 7a0b 	vldr	s15, [r3, #44]	@ 0x2c
 8000fe6:	eef5 7ac0 	vcmpe.f32	s15, #0.0
 8000fea:	eef1 fa10 	vmrs	APSR_nzcv, fpscr
 8000fee:	d505      	bpl.n	8000ffc <sensingCurr_getOverCurrent_st+0x13c>
 8000ff0:	4b51      	ldr	r3, [pc, #324]	@ (8001138 <sensingCurr_getOverCurrent_st+0x278>)
 8000ff2:	edd3 7a0b 	vldr	s15, [r3, #44]	@ 0x2c
 8000ff6:	eef1 7a67 	vneg.f32	s15, s15
 8000ffa:	e002      	b.n	8001002 <sensingCurr_getOverCurrent_st+0x142>
 8000ffc:	4b4e      	ldr	r3, [pc, #312]	@ (8001138 <sensingCurr_getOverCurrent_st+0x278>)
 8000ffe:	edd3 7a0b 	vldr	s15, [r3, #44]	@ 0x2c
 8001002:	eeb4 7ae7 	vcmpe.f32	s14, s15
 8001006:	eef1 fa10 	vmrs	APSR_nzcv, fpscr
 800100a:	dd11      	ble.n	8001030 <sensingCurr_getOverCurrent_st+0x170>
 800100c:	4b4a      	ldr	r3, [pc, #296]	@ (8001138 <sensingCurr_getOverCurrent_st+0x278>)
 800100e:	edd3 7a03 	vldr	s15, [r3, #12]
 8001012:	eef5 7ac0 	vcmpe.f32	s15, #0.0
 8001016:	eef1 fa10 	vmrs	APSR_nzcv, fpscr
 800101a:	d505      	bpl.n	8001028 <sensingCurr_getOverCurrent_st+0x168>
 800101c:	4b46      	ldr	r3, [pc, #280]	@ (8001138 <sensingCurr_getOverCurrent_st+0x278>)
 800101e:	edd3 7a03 	vldr	s15, [r3, #12]
 8001022:	eef1 7a67 	vneg.f32	s15, s15
 8001026:	e05f      	b.n	80010e8 <sensingCurr_getOverCurrent_st+0x228>
 8001028:	4b43      	ldr	r3, [pc, #268]	@ (8001138 <sensingCurr_getOverCurrent_st+0x278>)
 800102a:	edd3 7a03 	vldr	s15, [r3, #12]
 800102e:	e05b      	b.n	80010e8 <sensingCurr_getOverCurrent_st+0x228>
 8001030:	4b41      	ldr	r3, [pc, #260]	@ (8001138 <sensingCurr_getOverCurrent_st+0x278>)
 8001032:	edd3 7a0b 	vldr	s15, [r3, #44]	@ 0x2c
 8001036:	eef5 7ac0 	vcmpe.f32	s15, #0.0
 800103a:	eef1 fa10 	vmrs	APSR_nzcv, fpscr
 800103e:	d505      	bpl.n	800104c <sensingCurr_getOverCurrent_st+0x18c>
 8001040:	4b3d      	ldr	r3, [pc, #244]	@ (8001138 <sensingCurr_getOverCurrent_st+0x278>)
 8001042:	edd3 7a0b 	vldr	s15, [r3, #44]	@ 0x2c
 8001046:	eef1 7a67 	vneg.f32	s15, s15
 800104a:	e04d      	b.n	80010e8 <sensingCurr_getOverCurrent_st+0x228>
 800104c:	4b3a      	ldr	r3, [pc, #232]	@ (8001138 <sensingCurr_getOverCurrent_st+0x278>)
 800104e:	edd3 7a0b 	vldr	s15, [r3, #44]	@ 0x2c
 8001052:	e049      	b.n	80010e8 <sensingCurr_getOverCurrent_st+0x228>
 8001054:	4b38      	ldr	r3, [pc, #224]	@ (8001138 <sensingCurr_getOverCurrent_st+0x278>)
 8001056:	edd3 7a07 	vldr	s15, [r3, #28]
 800105a:	eef5 7ac0 	vcmpe.f32	s15, #0.0
 800105e:	eef1 fa10 	vmrs	APSR_nzcv, fpscr
 8001062:	d505      	bpl.n	8001070 <sensingCurr_getOverCurrent_st+0x1b0>
 8001064:	4b34      	ldr	r3, [pc, #208]	@ (8001138 <sensingCurr_getOverCurrent_st+0x278>)
 8001066:	edd3 7a07 	vldr	s15, [r3, #28]
 800106a:	eeb1 7a67 	vneg.f32	s14, s15
 800106e:	e002      	b.n	8001076 <sensingCurr_getOverCurrent_st+0x1b6>
 8001070:	4b31      	ldr	r3, [pc, #196]	@ (8001138 <sensingCurr_getOverCurrent_st+0x278>)
 8001072:	ed93 7a07 	vldr	s14, [r3, #28]
 8001076:	4b30      	ldr	r3, [pc, #192]	@ (8001138 <sensingCurr_getOverCurrent_st+0x278>)
 8001078:	edd3 7a0b 	vldr	s15, [r3, #44]	@ 0x2c
 800107c:	eef5 7ac0 	vcmpe.f32	s15, #0.0
 8001080:	eef1 fa10 	vmrs	APSR_nzcv, fpscr
 8001084:	d505      	bpl.n	8001092 <sensingCurr_getOverCurrent_st+0x1d2>
 8001086:	4b2c      	ldr	r3, [pc, #176]	@ (8001138 <sensingCurr_getOverCurrent_st+0x278>)
 8001088:	edd3 7a0b 	vldr	s15, [r3, #44]	@ 0x2c
 800108c:	eef1 7a67 	vneg.f32	s15, s15
 8001090:	e002      	b.n	8001098 <sensingCurr_getOverCurrent_st+0x1d8>
 8001092:	4b29      	ldr	r3, [pc, #164]	@ (8001138 <sensingCurr_getOverCurrent_st+0x278>)
 8001094:	edd3 7a0b 	vldr	s15, [r3, #44]	@ 0x2c
 8001098:	eeb4 7ae7 	vcmpe.f32	s14, s15
 800109c:	eef1 fa10 	vmrs	APSR_nzcv, fpscr
 80010a0:	dd11      	ble.n	80010c6 <sensingCurr_getOverCurrent_st+0x206>
 80010a2:	4b25      	ldr	r3, [pc, #148]	@ (8001138 <sensingCurr_getOverCurrent_st+0x278>)
 80010a4:	edd3 7a07 	vldr	s15, [r3, #28]
 80010a8:	eef5 7ac0 	vcmpe.f32	s15, #0.0
 80010ac:	eef1 fa10 	vmrs	APSR_nzcv, fpscr
 80010b0:	d505      	bpl.n	80010be <sensingCurr_getOverCurrent_st+0x1fe>
 80010b2:	4b21      	ldr	r3, [pc, #132]	@ (8001138 <sensingCurr_getOverCurrent_st+0x278>)
 80010b4:	edd3 7a07 	vldr	s15, [r3, #28]
 80010b8:	eef1 7a67 	vneg.f32	s15, s15
 80010bc:	e014      	b.n	80010e8 <sensingCurr_getOverCurrent_st+0x228>
 80010be:	4b1e      	ldr	r3, [pc, #120]	@ (8001138 <sensingCurr_getOverCurrent_st+0x278>)
 80010c0:	edd3 7a07 	vldr	s15, [r3, #28]
 80010c4:	e010      	b.n	80010e8 <sensingCurr_getOverCurrent_st+0x228>
 80010c6:	4b1c      	ldr	r3, [pc, #112]	@ (8001138 <sensingCurr_getOverCurrent_st+0x278>)
 80010c8:	edd3 7a0b 	vldr	s15, [r3, #44]	@ 0x2c
 80010cc:	eef5 7ac0 	vcmpe.f32	s15, #0.0
 80010d0:	eef1 fa10 	vmrs	APSR_nzcv, fpscr
 80010d4:	d505      	bpl.n	80010e2 <sensingCurr_getOverCurrent_st+0x222>
 80010d6:	4b18      	ldr	r3, [pc, #96]	@ (8001138 <sensingCurr_getOverCurrent_st+0x278>)
 80010d8:	edd3 7a0b 	vldr	s15, [r3, #44]	@ 0x2c
 80010dc:	eef1 7a67 	vneg.f32	s15, s15
 80010e0:	e002      	b.n	80010e8 <sensingCurr_getOverCurrent_st+0x228>
 80010e2:	4b15      	ldr	r3, [pc, #84]	@ (8001138 <sensingCurr_getOverCurrent_st+0x278>)
 80010e4:	edd3 7a0b 	vldr	s15, [r3, #44]	@ 0x2c
 80010e8:	4b13      	ldr	r3, [pc, #76]	@ (8001138 <sensingCurr_getOverCurrent_st+0x278>)
 80010ea:	edc3 7a0c 	vstr	s15, [r3, #48]	@ 0x30
        UTILS_ABS(vSensingCurr_handler.Iphase[IPHASE_V_IDX].filteredCurr_A),
        UTILS_ABS(vSensingCurr_handler.Iphase[IPHASE_W_IDX].filteredCurr_A)
    );

    // 4. 과전류 판단
    if(vSensingCurr_handler.Iphase_max > IPHASE_OVERCURR_THRESH)
 80010ee:	4b12      	ldr	r3, [pc, #72]	@ (8001138 <sensingCurr_getOverCurrent_st+0x278>)
 80010f0:	edd3 7a0c 	vldr	s15, [r3, #48]	@ 0x30
 80010f4:	ed9f 7a13 	vldr	s14, [pc, #76]	@ 8001144 <sensingCurr_getOverCurrent_st+0x284>
 80010f8:	eef4 7ac7 	vcmpe.f32	s15, s14
 80010fc:	eef1 fa10 	vmrs	APSR_nzcv, fpscr
 8001100:	dd04      	ble.n	800110c <sensingCurr_getOverCurrent_st+0x24c>
    {
        vSensingCurr_handler.is_overCurrent = true;
 8001102:	4b0d      	ldr	r3, [pc, #52]	@ (8001138 <sensingCurr_getOverCurrent_st+0x278>)
 8001104:	2201      	movs	r2, #1
 8001106:	f883 2034 	strb.w	r2, [r3, #52]	@ 0x34
 800110a:	e00d      	b.n	8001128 <sensingCurr_getOverCurrent_st+0x268>
    }
    else if(vSensingCurr_handler.Iphase_max < IPHASE_NORMAL_THRESH)
 800110c:	4b0a      	ldr	r3, [pc, #40]	@ (8001138 <sensingCurr_getOverCurrent_st+0x278>)
 800110e:	edd3 7a0c 	vldr	s15, [r3, #48]	@ 0x30
 8001112:	ed9f 7a0d 	vldr	s14, [pc, #52]	@ 8001148 <sensingCurr_getOverCurrent_st+0x288>
 8001116:	eef4 7ac7 	vcmpe.f32	s15, s14
 800111a:	eef1 fa10 	vmrs	APSR_nzcv, fpscr
 800111e:	d503      	bpl.n	8001128 <sensingCurr_getOverCurrent_st+0x268>
    {
        vSensingCurr_handler.is_overCurrent = false;
 8001120:	4b05      	ldr	r3, [pc, #20]	@ (8001138 <sensingCurr_getOverCurrent_st+0x278>)
 8001122:	2200      	movs	r2, #0
 8001124:	f883 2034 	strb.w	r2, [r3, #52]	@ 0x34
    else
    {
        // do nothing
    }

    return vSensingCurr_handler.is_overCurrent;
 8001128:	4b03      	ldr	r3, [pc, #12]	@ (8001138 <sensingCurr_getOverCurrent_st+0x278>)
 800112a:	f893 3034 	ldrb.w	r3, [r3, #52]	@ 0x34
}
 800112e:	4618      	mov	r0, r3
 8001130:	3714      	adds	r7, #20
 8001132:	46bd      	mov	sp, r7
 8001134:	bd90      	pop	{r4, r7, pc}
 8001136:	bf00      	nop
 8001138:	200000d4 	.word	0x200000d4
 800113c:	3a534067 	.word	0x3a534067
 8001140:	3d343958 	.word	0x3d343958
 8001144:	420c0000 	.word	0x420c0000
 8001148:	42080000 	.word	0x42080000

0800114c <sensing_getIphase_max>:

float sensing_getIphase_max(void)
{
 800114c:	b480      	push	{r7}
 800114e:	af00      	add	r7, sp, #0
	return vSensingCurr_handler.Iphase_max;
 8001150:	4b04      	ldr	r3, [pc, #16]	@ (8001164 <sensing_getIphase_max+0x18>)
 8001152:	6b1b      	ldr	r3, [r3, #48]	@ 0x30
 8001154:	ee07 3a90 	vmov	s15, r3
}
 8001158:	eeb0 0a67 	vmov.f32	s0, s15
 800115c:	46bd      	mov	sp, r7
 800115e:	f85d 7b04 	ldr.w	r7, [sp], #4
 8001162:	4770      	bx	lr
 8001164:	200000d4 	.word	0x200000d4

08001168 <sensing_objs_Init>:

void sensing_objs_Init(void)
{
 8001168:	b580      	push	{r7, lr}
 800116a:	af00      	add	r7, sp, #0
    throttle_init();
 800116c:	f7ff fcb8 	bl	8000ae0 <throttle_init>
    NTC_init();
 8001170:	f7ff fd84 	bl	8000c7c <NTC_init>
    dcVolt_init();
 8001174:	f7ff fe1e 	bl	8000db4 <dcVolt_init>
    sensingCurr_init();
 8001178:	f7ff fe64 	bl	8000e44 <sensingCurr_init>
}
 800117c:	bf00      	nop
 800117e:	bd80      	pop	{r7, pc}

08001180 <tasksch_runTime_assertFunc>:
/* Task Scheduler - RunTime Assert */

bool tasksch_feedWatchdog(void);

static inline void tasksch_runTime_assertFunc(void)
{
 8001180:	b480      	push	{r7}
 8001182:	af00      	add	r7, sp, #0
    while (1)
 8001184:	bf00      	nop
 8001186:	e7fd      	b.n	8001184 <tasksch_runTime_assertFunc+0x4>

08001188 <tasksch_taskConfig>:
}

/* Task Scheduler - Task Initialization */

static void tasksch_taskConfig(uint8_t taskIdx, uint16_t period_ms, uint16_t offset_ms, void (*taskFunc_ptr)(void))
{
 8001188:	b480      	push	{r7}
 800118a:	b085      	sub	sp, #20
 800118c:	af00      	add	r7, sp, #0
 800118e:	607b      	str	r3, [r7, #4]
 8001190:	4603      	mov	r3, r0
 8001192:	73fb      	strb	r3, [r7, #15]
 8001194:	460b      	mov	r3, r1
 8001196:	81bb      	strh	r3, [r7, #12]
 8001198:	4613      	mov	r3, r2
 800119a:	817b      	strh	r3, [r7, #10]
    if (taskIdx < TASKSCH_NUMBER && taskFunc_ptr != NULL && period_ms > 0U)
 800119c:	7bfb      	ldrb	r3, [r7, #15]
 800119e:	2b08      	cmp	r3, #8
 80011a0:	f200 808c 	bhi.w	80012bc <tasksch_taskConfig+0x134>
 80011a4:	687b      	ldr	r3, [r7, #4]
 80011a6:	2b00      	cmp	r3, #0
 80011a8:	f000 8088 	beq.w	80012bc <tasksch_taskConfig+0x134>
 80011ac:	89bb      	ldrh	r3, [r7, #12]
 80011ae:	2b00      	cmp	r3, #0
 80011b0:	f000 8084 	beq.w	80012bc <tasksch_taskConfig+0x134>
    {
        vTaskSch_taskList[taskIdx].taskIdx = taskIdx;
 80011b4:	7bfa      	ldrb	r2, [r7, #15]
 80011b6:	4946      	ldr	r1, [pc, #280]	@ (80012d0 <tasksch_taskConfig+0x148>)
 80011b8:	4613      	mov	r3, r2
 80011ba:	005b      	lsls	r3, r3, #1
 80011bc:	4413      	add	r3, r2
 80011be:	00db      	lsls	r3, r3, #3
 80011c0:	1a9b      	subs	r3, r3, r2
 80011c2:	440b      	add	r3, r1
 80011c4:	7bfa      	ldrb	r2, [r7, #15]
 80011c6:	701a      	strb	r2, [r3, #0]
        vTaskSch_taskList[taskIdx].taskFunc_ptr = taskFunc_ptr;
 80011c8:	7bfa      	ldrb	r2, [r7, #15]
 80011ca:	4941      	ldr	r1, [pc, #260]	@ (80012d0 <tasksch_taskConfig+0x148>)
 80011cc:	4613      	mov	r3, r2
 80011ce:	005b      	lsls	r3, r3, #1
 80011d0:	4413      	add	r3, r2
 80011d2:	00db      	lsls	r3, r3, #3
 80011d4:	1a9b      	subs	r3, r3, r2
 80011d6:	440b      	add	r3, r1
 80011d8:	687a      	ldr	r2, [r7, #4]
 80011da:	f8c3 2001 	str.w	r2, [r3, #1]

        vTaskSch_taskList[taskIdx].period_ms = period_ms;
 80011de:	7bfa      	ldrb	r2, [r7, #15]
 80011e0:	493b      	ldr	r1, [pc, #236]	@ (80012d0 <tasksch_taskConfig+0x148>)
 80011e2:	4613      	mov	r3, r2
 80011e4:	005b      	lsls	r3, r3, #1
 80011e6:	4413      	add	r3, r2
 80011e8:	00db      	lsls	r3, r3, #3
 80011ea:	1a9b      	subs	r3, r3, r2
 80011ec:	440b      	add	r3, r1
 80011ee:	89ba      	ldrh	r2, [r7, #12]
 80011f0:	f8a3 2005 	strh.w	r2, [r3, #5]
        vTaskSch_taskList[taskIdx].offset_ms = offset_ms;
 80011f4:	7bfa      	ldrb	r2, [r7, #15]
 80011f6:	4936      	ldr	r1, [pc, #216]	@ (80012d0 <tasksch_taskConfig+0x148>)
 80011f8:	4613      	mov	r3, r2
 80011fa:	005b      	lsls	r3, r3, #1
 80011fc:	4413      	add	r3, r2
 80011fe:	00db      	lsls	r3, r3, #3
 8001200:	1a9b      	subs	r3, r3, r2
 8001202:	440b      	add	r3, r1
 8001204:	897a      	ldrh	r2, [r7, #10]
 8001206:	f8a3 2007 	strh.w	r2, [r3, #7]
        vTaskSch_taskList[taskIdx].curTick_ms = 0;
 800120a:	7bfa      	ldrb	r2, [r7, #15]
 800120c:	4930      	ldr	r1, [pc, #192]	@ (80012d0 <tasksch_taskConfig+0x148>)
 800120e:	4613      	mov	r3, r2
 8001210:	005b      	lsls	r3, r3, #1
 8001212:	4413      	add	r3, r2
 8001214:	00db      	lsls	r3, r3, #3
 8001216:	1a9b      	subs	r3, r3, r2
 8001218:	440b      	add	r3, r1
 800121a:	3308      	adds	r3, #8
 800121c:	785a      	ldrb	r2, [r3, #1]
 800121e:	2200      	movs	r2, #0
 8001220:	705a      	strb	r2, [r3, #1]
 8001222:	789a      	ldrb	r2, [r3, #2]
 8001224:	2200      	movs	r2, #0
 8001226:	709a      	strb	r2, [r3, #2]
 8001228:	78da      	ldrb	r2, [r3, #3]
 800122a:	2200      	movs	r2, #0
 800122c:	70da      	strb	r2, [r3, #3]
 800122e:	791a      	ldrb	r2, [r3, #4]
 8001230:	2200      	movs	r2, #0
 8001232:	711a      	strb	r2, [r3, #4]

        vTaskSch_taskList[taskIdx].exec_flag = false;
 8001234:	7bfa      	ldrb	r2, [r7, #15]
 8001236:	4926      	ldr	r1, [pc, #152]	@ (80012d0 <tasksch_taskConfig+0x148>)
 8001238:	4613      	mov	r3, r2
 800123a:	005b      	lsls	r3, r3, #1
 800123c:	4413      	add	r3, r2
 800123e:	00db      	lsls	r3, r3, #3
 8001240:	1a9b      	subs	r3, r3, r2
 8001242:	440b      	add	r3, r1
 8001244:	330d      	adds	r3, #13
 8001246:	2200      	movs	r2, #0
 8001248:	701a      	strb	r2, [r3, #0]
        vTaskSch_taskList[taskIdx].cycledOnce_flag = false;
 800124a:	7bfa      	ldrb	r2, [r7, #15]
 800124c:	4920      	ldr	r1, [pc, #128]	@ (80012d0 <tasksch_taskConfig+0x148>)
 800124e:	4613      	mov	r3, r2
 8001250:	005b      	lsls	r3, r3, #1
 8001252:	4413      	add	r3, r2
 8001254:	00db      	lsls	r3, r3, #3
 8001256:	1a9b      	subs	r3, r3, r2
 8001258:	440b      	add	r3, r1
 800125a:	330e      	adds	r3, #14
 800125c:	2200      	movs	r2, #0
 800125e:	701a      	strb	r2, [r3, #0]
        vTaskSch_taskList[taskIdx].taskCnt = 0;
 8001260:	7bfa      	ldrb	r2, [r7, #15]
 8001262:	491b      	ldr	r1, [pc, #108]	@ (80012d0 <tasksch_taskConfig+0x148>)
 8001264:	4613      	mov	r3, r2
 8001266:	005b      	lsls	r3, r3, #1
 8001268:	4413      	add	r3, r2
 800126a:	00db      	lsls	r3, r3, #3
 800126c:	1a9b      	subs	r3, r3, r2
 800126e:	440b      	add	r3, r1
 8001270:	3310      	adds	r3, #16
 8001272:	2200      	movs	r2, #0
 8001274:	70da      	strb	r2, [r3, #3]
 8001276:	2200      	movs	r2, #0
 8001278:	711a      	strb	r2, [r3, #4]
 800127a:	2200      	movs	r2, #0
 800127c:	715a      	strb	r2, [r3, #5]
 800127e:	2200      	movs	r2, #0
 8001280:	719a      	strb	r2, [r3, #6]
        vTaskSch_taskList[taskIdx].indiOverRun_totalCnt = 0;
 8001282:	7bfa      	ldrb	r2, [r7, #15]
 8001284:	4912      	ldr	r1, [pc, #72]	@ (80012d0 <tasksch_taskConfig+0x148>)
 8001286:	4613      	mov	r3, r2
 8001288:	005b      	lsls	r3, r3, #1
 800128a:	4413      	add	r3, r2
 800128c:	00db      	lsls	r3, r3, #3
 800128e:	1a9b      	subs	r3, r3, r2
 8001290:	440b      	add	r3, r1
 8001292:	3308      	adds	r3, #8
 8001294:	79da      	ldrb	r2, [r3, #7]
 8001296:	2200      	movs	r2, #0
 8001298:	71da      	strb	r2, [r3, #7]
 800129a:	7a1a      	ldrb	r2, [r3, #8]
 800129c:	2200      	movs	r2, #0
 800129e:	721a      	strb	r2, [r3, #8]
        vTaskSch_taskList[taskIdx].indiOverRun_cycleCnt = 0;
 80012a0:	7bfa      	ldrb	r2, [r7, #15]
 80012a2:	490b      	ldr	r1, [pc, #44]	@ (80012d0 <tasksch_taskConfig+0x148>)
 80012a4:	4613      	mov	r3, r2
 80012a6:	005b      	lsls	r3, r3, #1
 80012a8:	4413      	add	r3, r2
 80012aa:	00db      	lsls	r3, r3, #3
 80012ac:	1a9b      	subs	r3, r3, r2
 80012ae:	440b      	add	r3, r1
 80012b0:	3310      	adds	r3, #16
 80012b2:	2200      	movs	r2, #0
 80012b4:	705a      	strb	r2, [r3, #1]
 80012b6:	2200      	movs	r2, #0
 80012b8:	709a      	strb	r2, [r3, #2]
    else
    {
        vTaskSch_info.initErrCode = TASKSCH_INIT_ERR_TASK_CONFIG_FAIL;
        TASKSCH_ASSERT_FUNC();
    }
}
 80012ba:	e004      	b.n	80012c6 <tasksch_taskConfig+0x13e>
        vTaskSch_info.initErrCode = TASKSCH_INIT_ERR_TASK_CONFIG_FAIL;
 80012bc:	4b05      	ldr	r3, [pc, #20]	@ (80012d4 <tasksch_taskConfig+0x14c>)
 80012be:	2202      	movs	r2, #2
 80012c0:	705a      	strb	r2, [r3, #1]
        TASKSCH_ASSERT_FUNC();
 80012c2:	bf00      	nop
 80012c4:	e7fd      	b.n	80012c2 <tasksch_taskConfig+0x13a>
}
 80012c6:	3714      	adds	r7, #20
 80012c8:	46bd      	mov	sp, r7
 80012ca:	f85d 7b04 	ldr.w	r7, [sp], #4
 80012ce:	4770      	bx	lr
 80012d0:	20000114 	.word	0x20000114
 80012d4:	200001e4 	.word	0x200001e4

080012d8 <tasksch_initTasks>:

static void tasksch_initTasks(void)
{
 80012d8:	b580      	push	{r7, lr}
 80012da:	b084      	sub	sp, #16
 80012dc:	af00      	add	r7, sp, #0
    uint8_t idx = 0;
 80012de:	2300      	movs	r3, #0
 80012e0:	73fb      	strb	r3, [r7, #15]

    typUserRegiTaskObj userTaskInfo = {NULL, 0, 0};
 80012e2:	2300      	movs	r3, #0
 80012e4:	607b      	str	r3, [r7, #4]
 80012e6:	2300      	movs	r3, #0
 80012e8:	813b      	strh	r3, [r7, #8]
 80012ea:	2300      	movs	r3, #0
 80012ec:	817b      	strh	r3, [r7, #10]
    for (; idx < TASKSCH_NUMBER; idx++)
 80012ee:	e00e      	b.n	800130e <tasksch_initTasks+0x36>
    {
        tasksch_getUserRegi_taskInfo(idx, &userTaskInfo);
 80012f0:	1d3a      	adds	r2, r7, #4
 80012f2:	7bfb      	ldrb	r3, [r7, #15]
 80012f4:	4611      	mov	r1, r2
 80012f6:	4618      	mov	r0, r3
 80012f8:	f000 fcda 	bl	8001cb0 <tasksch_getUserRegi_taskInfo>
        tasksch_taskConfig(idx, userTaskInfo.regiTaskPeriod_ms,
 80012fc:	8939      	ldrh	r1, [r7, #8]
 80012fe:	897a      	ldrh	r2, [r7, #10]
 8001300:	687b      	ldr	r3, [r7, #4]
 8001302:	7bf8      	ldrb	r0, [r7, #15]
 8001304:	f7ff ff40 	bl	8001188 <tasksch_taskConfig>
    for (; idx < TASKSCH_NUMBER; idx++)
 8001308:	7bfb      	ldrb	r3, [r7, #15]
 800130a:	3301      	adds	r3, #1
 800130c:	73fb      	strb	r3, [r7, #15]
 800130e:	7bfb      	ldrb	r3, [r7, #15]
 8001310:	2b08      	cmp	r3, #8
 8001312:	d9ed      	bls.n	80012f0 <tasksch_initTasks+0x18>
                           userTaskInfo.regiTaskOffset_ms, userTaskInfo.regiTaskFunc_ptr);
    }
}
 8001314:	bf00      	nop
 8001316:	bf00      	nop
 8001318:	3710      	adds	r7, #16
 800131a:	46bd      	mov	sp, r7
 800131c:	bd80      	pop	{r7, pc}

0800131e <tasksch_startCycleMeasurement>:

/* Task Scheduler - Measuring Task Execution Time */

static inline void tasksch_startCycleMeasurement(void)
{
 800131e:	b480      	push	{r7}
 8001320:	af00      	add	r7, sp, #0
#if (TASKSCH_CYCLE_MEASURING == TASKSCH_CYCLE_MEASURE_ENABLE)
    TASKSCH_WRITE_GPIO_PIN(TASKSCH_MEASURE_GPIO_PORT, TASKSCH_MEASURE_GPIO_PIN, TASKSCH_START_CYCLE_STAT);
#endif
    return;
 8001322:	bf00      	nop
}
 8001324:	46bd      	mov	sp, r7
 8001326:	f85d 7b04 	ldr.w	r7, [sp], #4
 800132a:	4770      	bx	lr

0800132c <tasksch_endCycleMeasurement>:

static inline void tasksch_endCycleMeasurement(void)
{
 800132c:	b480      	push	{r7}
 800132e:	af00      	add	r7, sp, #0
#if (TASKSCH_CYCLE_MEASURING == TASKSCH_CYCLE_MEASURE_ENABLE)
    TASKSCH_WRITE_GPIO_PIN(TASKSCH_MEASURE_GPIO_PORT, TASKSCH_MEASURE_GPIO_PIN, TASKSCH_END_CYCLE_STAT);
#endif
    return;
 8001330:	bf00      	nop
}
 8001332:	46bd      	mov	sp, r7
 8001334:	f85d 7b04 	ldr.w	r7, [sp], #4
 8001338:	4770      	bx	lr

0800133a <tasksch_userFeedFail_watchdogHook>:

/* Task Scheduler - __weak Function (userHook,Exit) */

__weak void tasksch_userInitCmpltHook(void) { return; }
__weak void tasksch_userFeedFail_watchdogHook(void) { return; }
 800133a:	b480      	push	{r7}
 800133c:	af00      	add	r7, sp, #0
 800133e:	bf00      	nop
 8001340:	46bd      	mov	sp, r7
 8001342:	f85d 7b04 	ldr.w	r7, [sp], #4
 8001346:	4770      	bx	lr

08001348 <tasksch_userMajorCycleHook>:
__weak void tasksch_userMajorCycleHook(void) { return; }
 8001348:	b480      	push	{r7}
 800134a:	af00      	add	r7, sp, #0
 800134c:	bf00      	nop
 800134e:	46bd      	mov	sp, r7
 8001350:	f85d 7b04 	ldr.w	r7, [sp], #4
 8001354:	4770      	bx	lr

08001356 <tasksch_user_preExit_schedulerHook>:
__weak void tasksch_user_preExit_schedulerHook(void) { return; }
 8001356:	b480      	push	{r7}
 8001358:	af00      	add	r7, sp, #0
 800135a:	bf00      	nop
 800135c:	46bd      	mov	sp, r7
 800135e:	f85d 7b04 	ldr.w	r7, [sp], #4
 8001362:	4770      	bx	lr

08001364 <tasksch_isMajorCycle>:
__weak bool tasksch_feedWatchdog(void) { return true; }

/* Task Scheduler - Major Cycle Event Functions */

static bool tasksch_isMajorCycle(void)
{
 8001364:	b480      	push	{r7}
 8001366:	af00      	add	r7, sp, #0
    if (vTaskSch_info.majorCycle_taskExecCnt == TASKSCH_NUMBER)
 8001368:	4b07      	ldr	r3, [pc, #28]	@ (8001388 <tasksch_isMajorCycle+0x24>)
 800136a:	795b      	ldrb	r3, [r3, #5]
 800136c:	2b09      	cmp	r3, #9
 800136e:	d104      	bne.n	800137a <tasksch_isMajorCycle+0x16>
    {
        vTaskSch_info.majorCycle_taskExecCnt = 0;
 8001370:	4b05      	ldr	r3, [pc, #20]	@ (8001388 <tasksch_isMajorCycle+0x24>)
 8001372:	2200      	movs	r2, #0
 8001374:	715a      	strb	r2, [r3, #5]
        return true;
 8001376:	2301      	movs	r3, #1
 8001378:	e000      	b.n	800137c <tasksch_isMajorCycle+0x18>
    }
    else
    {
        return false;
 800137a:	2300      	movs	r3, #0
    }
}
 800137c:	4618      	mov	r0, r3
 800137e:	46bd      	mov	sp, r7
 8001380:	f85d 7b04 	ldr.w	r7, [sp], #4
 8001384:	4770      	bx	lr
 8001386:	bf00      	nop
 8001388:	200001e4 	.word	0x200001e4

0800138c <tasksch_update_majorCycle_infos>:

static void tasksch_update_majorCycle_infos(void)
{
 800138c:	b480      	push	{r7}
 800138e:	b083      	sub	sp, #12
 8001390:	af00      	add	r7, sp, #0
    for (uint8_t i = 0; i < TASKSCH_NUMBER; i++)
 8001392:	2300      	movs	r3, #0
 8001394:	71fb      	strb	r3, [r7, #7]
 8001396:	e059      	b.n	800144c <tasksch_update_majorCycle_infos+0xc0>
    {
        vTaskSch_taskList[i].cycledOnce_flag = false;
 8001398:	79fa      	ldrb	r2, [r7, #7]
 800139a:	4931      	ldr	r1, [pc, #196]	@ (8001460 <tasksch_update_majorCycle_infos+0xd4>)
 800139c:	4613      	mov	r3, r2
 800139e:	005b      	lsls	r3, r3, #1
 80013a0:	4413      	add	r3, r2
 80013a2:	00db      	lsls	r3, r3, #3
 80013a4:	1a9b      	subs	r3, r3, r2
 80013a6:	440b      	add	r3, r1
 80013a8:	330e      	adds	r3, #14
 80013aa:	2200      	movs	r2, #0
 80013ac:	701a      	strb	r2, [r3, #0]
  \details Disables IRQ interrupts by setting the I-bit in the CPSR.
           Can only be executed in Privileged modes.
 */
__STATIC_FORCEINLINE void __disable_irq(void)
{
  __ASM volatile ("cpsid i" : : : "memory");
 80013ae:	b672      	cpsid	i
}
 80013b0:	bf00      	nop
        TASKSCH_DISABLE_ISR();
        vTaskSch_info.overRun_count += vTaskSch_taskList[i].indiOverRun_cycleCnt;
 80013b2:	4b2c      	ldr	r3, [pc, #176]	@ (8001464 <tasksch_update_majorCycle_infos+0xd8>)
 80013b4:	f8b3 3007 	ldrh.w	r3, [r3, #7]
 80013b8:	b299      	uxth	r1, r3
 80013ba:	79fa      	ldrb	r2, [r7, #7]
 80013bc:	4828      	ldr	r0, [pc, #160]	@ (8001460 <tasksch_update_majorCycle_infos+0xd4>)
 80013be:	4613      	mov	r3, r2
 80013c0:	005b      	lsls	r3, r3, #1
 80013c2:	4413      	add	r3, r2
 80013c4:	00db      	lsls	r3, r3, #3
 80013c6:	1a9b      	subs	r3, r3, r2
 80013c8:	4403      	add	r3, r0
 80013ca:	3310      	adds	r3, #16
 80013cc:	f8b3 3001 	ldrh.w	r3, [r3, #1]
 80013d0:	b29b      	uxth	r3, r3
 80013d2:	440b      	add	r3, r1
 80013d4:	b29a      	uxth	r2, r3
 80013d6:	4b23      	ldr	r3, [pc, #140]	@ (8001464 <tasksch_update_majorCycle_infos+0xd8>)
 80013d8:	f8a3 2007 	strh.w	r2, [r3, #7]
        vTaskSch_taskList[i].indiOverRun_totalCnt += vTaskSch_taskList[i].indiOverRun_cycleCnt;
 80013dc:	79fa      	ldrb	r2, [r7, #7]
 80013de:	4920      	ldr	r1, [pc, #128]	@ (8001460 <tasksch_update_majorCycle_infos+0xd4>)
 80013e0:	4613      	mov	r3, r2
 80013e2:	005b      	lsls	r3, r3, #1
 80013e4:	4413      	add	r3, r2
 80013e6:	00db      	lsls	r3, r3, #3
 80013e8:	1a9b      	subs	r3, r3, r2
 80013ea:	440b      	add	r3, r1
 80013ec:	3308      	adds	r3, #8
 80013ee:	f8b3 3007 	ldrh.w	r3, [r3, #7]
 80013f2:	b299      	uxth	r1, r3
 80013f4:	79fa      	ldrb	r2, [r7, #7]
 80013f6:	481a      	ldr	r0, [pc, #104]	@ (8001460 <tasksch_update_majorCycle_infos+0xd4>)
 80013f8:	4613      	mov	r3, r2
 80013fa:	005b      	lsls	r3, r3, #1
 80013fc:	4413      	add	r3, r2
 80013fe:	00db      	lsls	r3, r3, #3
 8001400:	1a9b      	subs	r3, r3, r2
 8001402:	4403      	add	r3, r0
 8001404:	3310      	adds	r3, #16
 8001406:	f8b3 3001 	ldrh.w	r3, [r3, #1]
 800140a:	b29b      	uxth	r3, r3
 800140c:	79fa      	ldrb	r2, [r7, #7]
 800140e:	440b      	add	r3, r1
 8001410:	b298      	uxth	r0, r3
 8001412:	4913      	ldr	r1, [pc, #76]	@ (8001460 <tasksch_update_majorCycle_infos+0xd4>)
 8001414:	4613      	mov	r3, r2
 8001416:	005b      	lsls	r3, r3, #1
 8001418:	4413      	add	r3, r2
 800141a:	00db      	lsls	r3, r3, #3
 800141c:	1a9b      	subs	r3, r3, r2
 800141e:	440b      	add	r3, r1
 8001420:	3308      	adds	r3, #8
 8001422:	4602      	mov	r2, r0
 8001424:	f8a3 2007 	strh.w	r2, [r3, #7]
		vTaskSch_taskList[i].indiOverRun_cycleCnt = 0;
 8001428:	79fa      	ldrb	r2, [r7, #7]
 800142a:	490d      	ldr	r1, [pc, #52]	@ (8001460 <tasksch_update_majorCycle_infos+0xd4>)
 800142c:	4613      	mov	r3, r2
 800142e:	005b      	lsls	r3, r3, #1
 8001430:	4413      	add	r3, r2
 8001432:	00db      	lsls	r3, r3, #3
 8001434:	1a9b      	subs	r3, r3, r2
 8001436:	440b      	add	r3, r1
 8001438:	3310      	adds	r3, #16
 800143a:	2200      	movs	r2, #0
 800143c:	705a      	strb	r2, [r3, #1]
 800143e:	2200      	movs	r2, #0
 8001440:	709a      	strb	r2, [r3, #2]
  __ASM volatile ("cpsie i" : : : "memory");
 8001442:	b662      	cpsie	i
}
 8001444:	bf00      	nop
    for (uint8_t i = 0; i < TASKSCH_NUMBER; i++)
 8001446:	79fb      	ldrb	r3, [r7, #7]
 8001448:	3301      	adds	r3, #1
 800144a:	71fb      	strb	r3, [r7, #7]
 800144c:	79fb      	ldrb	r3, [r7, #7]
 800144e:	2b08      	cmp	r3, #8
 8001450:	d9a2      	bls.n	8001398 <tasksch_update_majorCycle_infos+0xc>
        TASKSCH_ENABLE_ISR();
    }
}
 8001452:	bf00      	nop
 8001454:	bf00      	nop
 8001456:	370c      	adds	r7, #12
 8001458:	46bd      	mov	sp, r7
 800145a:	f85d 7b04 	ldr.w	r7, [sp], #4
 800145e:	4770      	bx	lr
 8001460:	20000114 	.word	0x20000114
 8001464:	200001e4 	.word	0x200001e4

08001468 <tasksch_majorCycleEvent>:

static void tasksch_majorCycleEvent(void)
{
 8001468:	b580      	push	{r7, lr}
 800146a:	af00      	add	r7, sp, #0
#if (TASKSCH_MAJOR_CYCLE_HOOK == TASKSCH_MAJOR_CYCLE_HOOK_ENABLE)
    // User-defined idle hook function
    tasksch_userMajorCycleHook();
 800146c:	f7ff ff6c 	bl	8001348 <tasksch_userMajorCycleHook>
#endif
    // GPIO set
    tasksch_startCycleMeasurement();
 8001470:	f7ff ff55 	bl	800131e <tasksch_startCycleMeasurement>

    // Feed the watchdog
    if (tasksch_feedWatchdog() == false)
 8001474:	f000 fbe2 	bl	8001c3c <tasksch_feedWatchdog>
 8001478:	4603      	mov	r3, r0
 800147a:	f083 0301 	eor.w	r3, r3, #1
 800147e:	b2db      	uxtb	r3, r3
 8001480:	2b00      	cmp	r3, #0
 8001482:	d006      	beq.n	8001492 <tasksch_majorCycleEvent+0x2a>
    {
        vTaskSch_info.runErrCode = TASKSCH_RUN_ERR_WATCHDOG_FAIL;
 8001484:	4b07      	ldr	r3, [pc, #28]	@ (80014a4 <tasksch_majorCycleEvent+0x3c>)
 8001486:	2203      	movs	r2, #3
 8001488:	70da      	strb	r2, [r3, #3]
        tasksch_userFeedFail_watchdogHook();
 800148a:	f7ff ff56 	bl	800133a <tasksch_userFeedFail_watchdogHook>
        TASKSCH_ASSERT_FUNC();
 800148e:	bf00      	nop
 8001490:	e7fd      	b.n	800148e <tasksch_majorCycleEvent+0x26>
    }
    else
    {
        // Reset cycled flags
        tasksch_update_majorCycle_infos();
 8001492:	f7ff ff7b 	bl	800138c <tasksch_update_majorCycle_infos>
        // GPIO reset
        tasksch_endCycleMeasurement();
 8001496:	f7ff ff49 	bl	800132c <tasksch_endCycleMeasurement>
        vTaskSch_info.majorCycle_flag = false;
 800149a:	4b02      	ldr	r3, [pc, #8]	@ (80014a4 <tasksch_majorCycleEvent+0x3c>)
 800149c:	2200      	movs	r2, #0
 800149e:	711a      	strb	r2, [r3, #4]
    }

    return;
 80014a0:	bf00      	nop
}
 80014a2:	bd80      	pop	{r7, pc}
 80014a4:	200001e4 	.word	0x200001e4

080014a8 <tasksch_initEvent>:

static void tasksch_initEvent(void)
{
 80014a8:	b580      	push	{r7, lr}
 80014aa:	af00      	add	r7, sp, #0
#if (TASKSCH_INIT_HOOK == TASKSCH_INIT_HOOK_ENABLE)
    // User-defined init hook function
    // User can override this function in tasksch_config.c
    tasksch_userInitCmpltHook();
 80014ac:	f000 fb76 	bl	8001b9c <tasksch_userInitCmpltHook>
#endif

    vTaskSch_info.isInitialized = true;
 80014b0:	4b03      	ldr	r3, [pc, #12]	@ (80014c0 <tasksch_initEvent+0x18>)
 80014b2:	2201      	movs	r2, #1
 80014b4:	701a      	strb	r2, [r3, #0]
    vTaskSch_info.initStatus = TASKSCH_INIT_COMPLETED;
 80014b6:	4b02      	ldr	r3, [pc, #8]	@ (80014c0 <tasksch_initEvent+0x18>)
 80014b8:	2208      	movs	r2, #8
 80014ba:	709a      	strb	r2, [r3, #2]
    return;
 80014bc:	bf00      	nop
}
 80014be:	bd80      	pop	{r7, pc}
 80014c0:	200001e4 	.word	0x200001e4

080014c4 <tasksch_initExecClock>:

/* Task Scheduler - Execution Clock Management */

static void tasksch_initExecClock(void)
{
 80014c4:	b480      	push	{r7}
 80014c6:	af00      	add	r7, sp, #0
    vTaskSch_totalExecCLK.day = 0;
 80014c8:	4b09      	ldr	r3, [pc, #36]	@ (80014f0 <tasksch_initExecClock+0x2c>)
 80014ca:	2200      	movs	r2, #0
 80014cc:	701a      	strb	r2, [r3, #0]
    vTaskSch_totalExecCLK.hour = 0;
 80014ce:	4b08      	ldr	r3, [pc, #32]	@ (80014f0 <tasksch_initExecClock+0x2c>)
 80014d0:	2200      	movs	r2, #0
 80014d2:	705a      	strb	r2, [r3, #1]
    vTaskSch_totalExecCLK.min = 0;
 80014d4:	4b06      	ldr	r3, [pc, #24]	@ (80014f0 <tasksch_initExecClock+0x2c>)
 80014d6:	2200      	movs	r2, #0
 80014d8:	709a      	strb	r2, [r3, #2]
    vTaskSch_totalExecCLK.sec = 0;
 80014da:	4b05      	ldr	r3, [pc, #20]	@ (80014f0 <tasksch_initExecClock+0x2c>)
 80014dc:	2200      	movs	r2, #0
 80014de:	70da      	strb	r2, [r3, #3]
    vTaskSch_totalExecCLK.mili_sec = 0;
 80014e0:	4b03      	ldr	r3, [pc, #12]	@ (80014f0 <tasksch_initExecClock+0x2c>)
 80014e2:	2200      	movs	r2, #0
 80014e4:	809a      	strh	r2, [r3, #4]
}
 80014e6:	bf00      	nop
 80014e8:	46bd      	mov	sp, r7
 80014ea:	f85d 7b04 	ldr.w	r7, [sp], #4
 80014ee:	4770      	bx	lr
 80014f0:	2000010c 	.word	0x2000010c

080014f4 <tasksch_updateExecClock>:

static void tasksch_updateExecClock(void) // execute in 1ms timer interrupt
{
 80014f4:	b480      	push	{r7}
 80014f6:	af00      	add	r7, sp, #0
    vTaskSch_totalExecCLK.mili_sec++;
 80014f8:	4b1f      	ldr	r3, [pc, #124]	@ (8001578 <tasksch_updateExecClock+0x84>)
 80014fa:	889b      	ldrh	r3, [r3, #4]
 80014fc:	3301      	adds	r3, #1
 80014fe:	b29a      	uxth	r2, r3
 8001500:	4b1d      	ldr	r3, [pc, #116]	@ (8001578 <tasksch_updateExecClock+0x84>)
 8001502:	809a      	strh	r2, [r3, #4]

    if (vTaskSch_totalExecCLK.mili_sec >= 1000)
 8001504:	4b1c      	ldr	r3, [pc, #112]	@ (8001578 <tasksch_updateExecClock+0x84>)
 8001506:	889b      	ldrh	r3, [r3, #4]
 8001508:	f5b3 7f7a 	cmp.w	r3, #1000	@ 0x3e8
 800150c:	d308      	bcc.n	8001520 <tasksch_updateExecClock+0x2c>
    {
        vTaskSch_totalExecCLK.mili_sec = 0;
 800150e:	4b1a      	ldr	r3, [pc, #104]	@ (8001578 <tasksch_updateExecClock+0x84>)
 8001510:	2200      	movs	r2, #0
 8001512:	809a      	strh	r2, [r3, #4]
        vTaskSch_totalExecCLK.sec++;
 8001514:	4b18      	ldr	r3, [pc, #96]	@ (8001578 <tasksch_updateExecClock+0x84>)
 8001516:	78db      	ldrb	r3, [r3, #3]
 8001518:	3301      	adds	r3, #1
 800151a:	b2da      	uxtb	r2, r3
 800151c:	4b16      	ldr	r3, [pc, #88]	@ (8001578 <tasksch_updateExecClock+0x84>)
 800151e:	70da      	strb	r2, [r3, #3]
    }

    if (vTaskSch_totalExecCLK.sec >= 60)
 8001520:	4b15      	ldr	r3, [pc, #84]	@ (8001578 <tasksch_updateExecClock+0x84>)
 8001522:	78db      	ldrb	r3, [r3, #3]
 8001524:	2b3b      	cmp	r3, #59	@ 0x3b
 8001526:	d908      	bls.n	800153a <tasksch_updateExecClock+0x46>
    {
        vTaskSch_totalExecCLK.sec = 0;
 8001528:	4b13      	ldr	r3, [pc, #76]	@ (8001578 <tasksch_updateExecClock+0x84>)
 800152a:	2200      	movs	r2, #0
 800152c:	70da      	strb	r2, [r3, #3]
        vTaskSch_totalExecCLK.min++;
 800152e:	4b12      	ldr	r3, [pc, #72]	@ (8001578 <tasksch_updateExecClock+0x84>)
 8001530:	789b      	ldrb	r3, [r3, #2]
 8001532:	3301      	adds	r3, #1
 8001534:	b2da      	uxtb	r2, r3
 8001536:	4b10      	ldr	r3, [pc, #64]	@ (8001578 <tasksch_updateExecClock+0x84>)
 8001538:	709a      	strb	r2, [r3, #2]
    }

    if (vTaskSch_totalExecCLK.min >= 60)
 800153a:	4b0f      	ldr	r3, [pc, #60]	@ (8001578 <tasksch_updateExecClock+0x84>)
 800153c:	789b      	ldrb	r3, [r3, #2]
 800153e:	2b3b      	cmp	r3, #59	@ 0x3b
 8001540:	d908      	bls.n	8001554 <tasksch_updateExecClock+0x60>
    {
        vTaskSch_totalExecCLK.min = 0;
 8001542:	4b0d      	ldr	r3, [pc, #52]	@ (8001578 <tasksch_updateExecClock+0x84>)
 8001544:	2200      	movs	r2, #0
 8001546:	709a      	strb	r2, [r3, #2]
        vTaskSch_totalExecCLK.hour++;
 8001548:	4b0b      	ldr	r3, [pc, #44]	@ (8001578 <tasksch_updateExecClock+0x84>)
 800154a:	785b      	ldrb	r3, [r3, #1]
 800154c:	3301      	adds	r3, #1
 800154e:	b2da      	uxtb	r2, r3
 8001550:	4b09      	ldr	r3, [pc, #36]	@ (8001578 <tasksch_updateExecClock+0x84>)
 8001552:	705a      	strb	r2, [r3, #1]
    }

    if (vTaskSch_totalExecCLK.hour >= 24)
 8001554:	4b08      	ldr	r3, [pc, #32]	@ (8001578 <tasksch_updateExecClock+0x84>)
 8001556:	785b      	ldrb	r3, [r3, #1]
 8001558:	2b17      	cmp	r3, #23
 800155a:	d908      	bls.n	800156e <tasksch_updateExecClock+0x7a>
    {
        vTaskSch_totalExecCLK.hour = 0;
 800155c:	4b06      	ldr	r3, [pc, #24]	@ (8001578 <tasksch_updateExecClock+0x84>)
 800155e:	2200      	movs	r2, #0
 8001560:	705a      	strb	r2, [r3, #1]
        vTaskSch_totalExecCLK.day++;
 8001562:	4b05      	ldr	r3, [pc, #20]	@ (8001578 <tasksch_updateExecClock+0x84>)
 8001564:	781b      	ldrb	r3, [r3, #0]
 8001566:	3301      	adds	r3, #1
 8001568:	b2da      	uxtb	r2, r3
 800156a:	4b03      	ldr	r3, [pc, #12]	@ (8001578 <tasksch_updateExecClock+0x84>)
 800156c:	701a      	strb	r2, [r3, #0]
    }
}
 800156e:	bf00      	nop
 8001570:	46bd      	mov	sp, r7
 8001572:	f85d 7b04 	ldr.w	r7, [sp], #4
 8001576:	4770      	bx	lr
 8001578:	2000010c 	.word	0x2000010c

0800157c <tasksch_checkOverrunThreshold>:
{
    vTaskSch_info.overRun_count = 0;
}

static inline void tasksch_checkOverrunThreshold(void)
{
 800157c:	b480      	push	{r7}
 800157e:	af00      	add	r7, sp, #0
        tasksch_userOverRun_thrshldExceedHook();
#endif
        TASKSCH_ASSERT_FUNC(); // induce watchdog reset or infinite loop
    }
#endif
    return;
 8001580:	bf00      	nop
}
 8001582:	46bd      	mov	sp, r7
 8001584:	f85d 7b04 	ldr.w	r7, [sp], #4
 8001588:	4770      	bx	lr

0800158a <tasksch_detectOverRun>:

static inline void tasksch_detectOverRun(typTaskInfo *task)
{
 800158a:	b480      	push	{r7}
 800158c:	b083      	sub	sp, #12
 800158e:	af00      	add	r7, sp, #0
 8001590:	6078      	str	r0, [r7, #4]
    {
        task->indiOverRun_cycleCnt++;
    }

#endif
    return;
 8001592:	bf00      	nop
}
 8001594:	370c      	adds	r7, #12
 8001596:	46bd      	mov	sp, r7
 8001598:	f85d 7b04 	ldr.w	r7, [sp], #4
 800159c:	4770      	bx	lr
	...

080015a0 <tasksch_infoInit>:

/* Task Scheduler - Core Logic */

static void tasksch_infoInit(void)
{
 80015a0:	b480      	push	{r7}
 80015a2:	af00      	add	r7, sp, #0
    // init task scheduler info
    vTaskSch_info.isInitialized = false;
 80015a4:	4b0f      	ldr	r3, [pc, #60]	@ (80015e4 <tasksch_infoInit+0x44>)
 80015a6:	2200      	movs	r2, #0
 80015a8:	701a      	strb	r2, [r3, #0]
    vTaskSch_info.initErrCode = TASKSCH_INIT_ERR_OK;
 80015aa:	4b0e      	ldr	r3, [pc, #56]	@ (80015e4 <tasksch_infoInit+0x44>)
 80015ac:	2200      	movs	r2, #0
 80015ae:	705a      	strb	r2, [r3, #1]
    vTaskSch_info.initStatus = TASKSCH_INIT_NOT_STARTED;
 80015b0:	4b0c      	ldr	r3, [pc, #48]	@ (80015e4 <tasksch_infoInit+0x44>)
 80015b2:	2200      	movs	r2, #0
 80015b4:	709a      	strb	r2, [r3, #2]

    // runtime task scheduler info
    vTaskSch_info.runErrCode = TASKSCH_RUN_ERR_OK;
 80015b6:	4b0b      	ldr	r3, [pc, #44]	@ (80015e4 <tasksch_infoInit+0x44>)
 80015b8:	2200      	movs	r2, #0
 80015ba:	70da      	strb	r2, [r3, #3]
    vTaskSch_info.tasksch_Exit_Flag = false;
 80015bc:	4b09      	ldr	r3, [pc, #36]	@ (80015e4 <tasksch_infoInit+0x44>)
 80015be:	2200      	movs	r2, #0
 80015c0:	719a      	strb	r2, [r3, #6]
    vTaskSch_info.majorCycle_taskExecCnt = 0;
 80015c2:	4b08      	ldr	r3, [pc, #32]	@ (80015e4 <tasksch_infoInit+0x44>)
 80015c4:	2200      	movs	r2, #0
 80015c6:	715a      	strb	r2, [r3, #5]
    vTaskSch_info.majorCycle_flag = false;
 80015c8:	4b06      	ldr	r3, [pc, #24]	@ (80015e4 <tasksch_infoInit+0x44>)
 80015ca:	2200      	movs	r2, #0
 80015cc:	711a      	strb	r2, [r3, #4]
    vTaskSch_info.overRun_count = 0;
 80015ce:	4b05      	ldr	r3, [pc, #20]	@ (80015e4 <tasksch_infoInit+0x44>)
 80015d0:	2200      	movs	r2, #0
 80015d2:	71da      	strb	r2, [r3, #7]
 80015d4:	2200      	movs	r2, #0
 80015d6:	721a      	strb	r2, [r3, #8]
}
 80015d8:	bf00      	nop
 80015da:	46bd      	mov	sp, r7
 80015dc:	f85d 7b04 	ldr.w	r7, [sp], #4
 80015e0:	4770      	bx	lr
 80015e2:	bf00      	nop
 80015e4:	200001e4 	.word	0x200001e4

080015e8 <tasksch_init>:

void tasksch_init(void)
{
 80015e8:	b580      	push	{r7, lr}
 80015ea:	af00      	add	r7, sp, #0
    // Prevent re-initialization
    if (vTaskSch_info.isInitialized == true)
 80015ec:	4b28      	ldr	r3, [pc, #160]	@ (8001690 <tasksch_init+0xa8>)
 80015ee:	781b      	ldrb	r3, [r3, #0]
 80015f0:	2b00      	cmp	r3, #0
 80015f2:	d004      	beq.n	80015fe <tasksch_init+0x16>
    {
        vTaskSch_info.runErrCode = TASKSCH_RUN_ERR_INIT_AGAIN;
 80015f4:	4b26      	ldr	r3, [pc, #152]	@ (8001690 <tasksch_init+0xa8>)
 80015f6:	2201      	movs	r2, #1
 80015f8:	70da      	strb	r2, [r3, #3]
        tasksch_runTime_assertFunc();
 80015fa:	f7ff fdc1 	bl	8001180 <tasksch_runTime_assertFunc>
    }

    // Initialize task scheduler information
    tasksch_infoInit();
 80015fe:	f7ff ffcf 	bl	80015a0 <tasksch_infoInit>
    vTaskSch_info.initStatus = TASKSCH_INIT_INFO_INITIALIZED;
 8001602:	4b23      	ldr	r3, [pc, #140]	@ (8001690 <tasksch_init+0xa8>)
 8001604:	2201      	movs	r2, #1
 8001606:	709a      	strb	r2, [r3, #2]

    // Initialize user registration-only task information
    tasksch_init_RegiTaskObj();
 8001608:	f000 fa58 	bl	8001abc <tasksch_init_RegiTaskObj>
    vTaskSch_info.initStatus = TASKSCH_INIT_REGI_TASK_CONFIGED;
 800160c:	4b20      	ldr	r3, [pc, #128]	@ (8001690 <tasksch_init+0xa8>)
 800160e:	2202      	movs	r2, #2
 8001610:	709a      	strb	r2, [r3, #2]

    // Verifying user-defined registration-only task information
    if (tasksch_ValidateUser_RegiTaskInfos() == false)
 8001612:	f000 fb21 	bl	8001c58 <tasksch_ValidateUser_RegiTaskInfos>
 8001616:	4603      	mov	r3, r0
 8001618:	f083 0301 	eor.w	r3, r3, #1
 800161c:	b2db      	uxtb	r3, r3
 800161e:	2b00      	cmp	r3, #0
 8001620:	d004      	beq.n	800162c <tasksch_init+0x44>
    {
        vTaskSch_info.initErrCode = TASKSCH_INIT_ERR_TASK_INFO_INVALID;
 8001622:	4b1b      	ldr	r3, [pc, #108]	@ (8001690 <tasksch_init+0xa8>)
 8001624:	2201      	movs	r2, #1
 8001626:	705a      	strb	r2, [r3, #1]
        TASKSCH_ASSERT_FUNC();
 8001628:	bf00      	nop
 800162a:	e7fd      	b.n	8001628 <tasksch_init+0x40>
    }
    else
    {
        vTaskSch_info.initStatus = TASKSCH_INIT_TASKS_VALIDATED;
 800162c:	4b18      	ldr	r3, [pc, #96]	@ (8001690 <tasksch_init+0xa8>)
 800162e:	2203      	movs	r2, #3
 8001630:	709a      	strb	r2, [r3, #2]
    }

    // Task Initialization
    tasksch_initTasks();
 8001632:	f7ff fe51 	bl	80012d8 <tasksch_initTasks>
    vTaskSch_info.initStatus = TASKSCH_INIT_ALL_TASKS_CONFIGURED;
 8001636:	4b16      	ldr	r3, [pc, #88]	@ (8001690 <tasksch_init+0xa8>)
 8001638:	2204      	movs	r2, #4
 800163a:	709a      	strb	r2, [r3, #2]

    // Watchdog Initialization
    if (tasksch_initWatchdog() == false)
 800163c:	f000 fae2 	bl	8001c04 <tasksch_initWatchdog>
 8001640:	4603      	mov	r3, r0
 8001642:	f083 0301 	eor.w	r3, r3, #1
 8001646:	b2db      	uxtb	r3, r3
 8001648:	2b00      	cmp	r3, #0
 800164a:	d004      	beq.n	8001656 <tasksch_init+0x6e>
    {
        vTaskSch_info.initErrCode = TASKSCH_INIT_ERR_WATCHDOG_INIT_FAIL;
 800164c:	4b10      	ldr	r3, [pc, #64]	@ (8001690 <tasksch_init+0xa8>)
 800164e:	2203      	movs	r2, #3
 8001650:	705a      	strb	r2, [r3, #1]
        TASKSCH_ASSERT_FUNC();
 8001652:	bf00      	nop
 8001654:	e7fd      	b.n	8001652 <tasksch_init+0x6a>
    }
    else
    {
        vTaskSch_info.initStatus = TASKSCH_INIT_WATCHDOG_INITIALIZED;
 8001656:	4b0e      	ldr	r3, [pc, #56]	@ (8001690 <tasksch_init+0xa8>)
 8001658:	2206      	movs	r2, #6
 800165a:	709a      	strb	r2, [r3, #2]
    }

    // Initialize system run time
    tasksch_initExecClock();
 800165c:	f7ff ff32 	bl	80014c4 <tasksch_initExecClock>
    vTaskSch_info.initStatus = TASKSCH_INIT_EXEC_CLOCK_INITIALIZED;
 8001660:	4b0b      	ldr	r3, [pc, #44]	@ (8001690 <tasksch_init+0xa8>)
 8001662:	2205      	movs	r2, #5
 8001664:	709a      	strb	r2, [r3, #2]

    // Watchdog Start
    if (tasksch_beginWatchdog() == false)
 8001666:	f000 fadb 	bl	8001c20 <tasksch_beginWatchdog>
 800166a:	4603      	mov	r3, r0
 800166c:	f083 0301 	eor.w	r3, r3, #1
 8001670:	b2db      	uxtb	r3, r3
 8001672:	2b00      	cmp	r3, #0
 8001674:	d004      	beq.n	8001680 <tasksch_init+0x98>
    {
        vTaskSch_info.initErrCode = TASKSCH_INIT_ERR_WATCHDOG_START_FAIL;
 8001676:	4b06      	ldr	r3, [pc, #24]	@ (8001690 <tasksch_init+0xa8>)
 8001678:	2204      	movs	r2, #4
 800167a:	705a      	strb	r2, [r3, #1]
        TASKSCH_ASSERT_FUNC();
 800167c:	bf00      	nop
 800167e:	e7fd      	b.n	800167c <tasksch_init+0x94>
    }
    else
    {
        vTaskSch_info.initStatus = TASKSCH_INIT_WATCHDOG_STARTED;
 8001680:	4b03      	ldr	r3, [pc, #12]	@ (8001690 <tasksch_init+0xa8>)
 8001682:	2207      	movs	r2, #7
 8001684:	709a      	strb	r2, [r3, #2]
    }

    // Done
    tasksch_initEvent();
 8001686:	f7ff ff0f 	bl	80014a8 <tasksch_initEvent>
}
 800168a:	bf00      	nop
 800168c:	bd80      	pop	{r7, pc}
 800168e:	bf00      	nop
 8001690:	200001e4 	.word	0x200001e4

08001694 <tasksch_execTask>:

void tasksch_execTask(void)
{
 8001694:	b580      	push	{r7, lr}
 8001696:	b082      	sub	sp, #8
 8001698:	af00      	add	r7, sp, #0
    bool exitRequested = false;
 800169a:	2300      	movs	r3, #0
 800169c:	71bb      	strb	r3, [r7, #6]

    if (vTaskSch_info.isInitialized == false)
 800169e:	4b4d      	ldr	r3, [pc, #308]	@ (80017d4 <tasksch_execTask+0x140>)
 80016a0:	781b      	ldrb	r3, [r3, #0]
 80016a2:	f083 0301 	eor.w	r3, r3, #1
 80016a6:	b2db      	uxtb	r3, r3
 80016a8:	2b00      	cmp	r3, #0
 80016aa:	f000 8085 	beq.w	80017b8 <tasksch_execTask+0x124>
    {
        vTaskSch_info.runErrCode = TASKSCH_RUN_ERR_INIT_NOT_DONE;
 80016ae:	4b49      	ldr	r3, [pc, #292]	@ (80017d4 <tasksch_execTask+0x140>)
 80016b0:	2202      	movs	r2, #2
 80016b2:	70da      	strb	r2, [r3, #3]
        TASKSCH_ASSERT_FUNC();
 80016b4:	bf00      	nop
 80016b6:	e7fd      	b.n	80016b4 <tasksch_execTask+0x20>
    }

    while (vTaskSch_info.tasksch_Exit_Flag == false)
    {
        tasksch_checkOverrunThreshold();
 80016b8:	f7ff ff60 	bl	800157c <tasksch_checkOverrunThreshold>

        for (uint8_t idx = 0; idx < TASKSCH_NUMBER; idx++)
 80016bc:	2300      	movs	r3, #0
 80016be:	71fb      	strb	r3, [r7, #7]
 80016c0:	e060      	b.n	8001784 <tasksch_execTask+0xf0>
        {

            if (vTaskSch_taskList[idx].exec_flag == true)
 80016c2:	79fa      	ldrb	r2, [r7, #7]
 80016c4:	4944      	ldr	r1, [pc, #272]	@ (80017d8 <tasksch_execTask+0x144>)
 80016c6:	4613      	mov	r3, r2
 80016c8:	005b      	lsls	r3, r3, #1
 80016ca:	4413      	add	r3, r2
 80016cc:	00db      	lsls	r3, r3, #3
 80016ce:	1a9b      	subs	r3, r3, r2
 80016d0:	440b      	add	r3, r1
 80016d2:	330d      	adds	r3, #13
 80016d4:	781b      	ldrb	r3, [r3, #0]
 80016d6:	b2db      	uxtb	r3, r3
 80016d8:	2b00      	cmp	r3, #0
 80016da:	d050      	beq.n	800177e <tasksch_execTask+0xea>
  __ASM volatile ("cpsid i" : : : "memory");
 80016dc:	b672      	cpsid	i
}
 80016de:	bf00      	nop
            {
                TASKSCH_DISABLE_ISR();
                vTaskSch_taskList[idx].exec_flag = false;
 80016e0:	79fa      	ldrb	r2, [r7, #7]
 80016e2:	493d      	ldr	r1, [pc, #244]	@ (80017d8 <tasksch_execTask+0x144>)
 80016e4:	4613      	mov	r3, r2
 80016e6:	005b      	lsls	r3, r3, #1
 80016e8:	4413      	add	r3, r2
 80016ea:	00db      	lsls	r3, r3, #3
 80016ec:	1a9b      	subs	r3, r3, r2
 80016ee:	440b      	add	r3, r1
 80016f0:	330d      	adds	r3, #13
 80016f2:	2200      	movs	r2, #0
 80016f4:	701a      	strb	r2, [r3, #0]
  __ASM volatile ("cpsie i" : : : "memory");
 80016f6:	b662      	cpsie	i
}
 80016f8:	bf00      	nop
                TASKSCH_ENABLE_ISR();
                vTaskSch_taskList[idx].taskFunc_ptr();
 80016fa:	79fa      	ldrb	r2, [r7, #7]
 80016fc:	4936      	ldr	r1, [pc, #216]	@ (80017d8 <tasksch_execTask+0x144>)
 80016fe:	4613      	mov	r3, r2
 8001700:	005b      	lsls	r3, r3, #1
 8001702:	4413      	add	r3, r2
 8001704:	00db      	lsls	r3, r3, #3
 8001706:	1a9b      	subs	r3, r3, r2
 8001708:	440b      	add	r3, r1
 800170a:	f8d3 3001 	ldr.w	r3, [r3, #1]
 800170e:	4798      	blx	r3
                vTaskSch_taskList[idx].taskCnt++;
 8001710:	79fa      	ldrb	r2, [r7, #7]
 8001712:	4931      	ldr	r1, [pc, #196]	@ (80017d8 <tasksch_execTask+0x144>)
 8001714:	4613      	mov	r3, r2
 8001716:	005b      	lsls	r3, r3, #1
 8001718:	4413      	add	r3, r2
 800171a:	00db      	lsls	r3, r3, #3
 800171c:	1a9b      	subs	r3, r3, r2
 800171e:	440b      	add	r3, r1
 8001720:	3310      	adds	r3, #16
 8001722:	f8d3 3003 	ldr.w	r3, [r3, #3]
 8001726:	1c59      	adds	r1, r3, #1
 8001728:	482b      	ldr	r0, [pc, #172]	@ (80017d8 <tasksch_execTask+0x144>)
 800172a:	4613      	mov	r3, r2
 800172c:	005b      	lsls	r3, r3, #1
 800172e:	4413      	add	r3, r2
 8001730:	00db      	lsls	r3, r3, #3
 8001732:	1a9b      	subs	r3, r3, r2
 8001734:	4403      	add	r3, r0
 8001736:	3310      	adds	r3, #16
 8001738:	f8c3 1003 	str.w	r1, [r3, #3]

                if (vTaskSch_taskList[idx].cycledOnce_flag == false)
 800173c:	79fa      	ldrb	r2, [r7, #7]
 800173e:	4926      	ldr	r1, [pc, #152]	@ (80017d8 <tasksch_execTask+0x144>)
 8001740:	4613      	mov	r3, r2
 8001742:	005b      	lsls	r3, r3, #1
 8001744:	4413      	add	r3, r2
 8001746:	00db      	lsls	r3, r3, #3
 8001748:	1a9b      	subs	r3, r3, r2
 800174a:	440b      	add	r3, r1
 800174c:	330e      	adds	r3, #14
 800174e:	781b      	ldrb	r3, [r3, #0]
 8001750:	b2db      	uxtb	r3, r3
 8001752:	f083 0301 	eor.w	r3, r3, #1
 8001756:	b2db      	uxtb	r3, r3
 8001758:	2b00      	cmp	r3, #0
 800175a:	d010      	beq.n	800177e <tasksch_execTask+0xea>
                {
                    // first time task executed in this major cycle
                    vTaskSch_info.majorCycle_taskExecCnt++;
 800175c:	4b1d      	ldr	r3, [pc, #116]	@ (80017d4 <tasksch_execTask+0x140>)
 800175e:	795b      	ldrb	r3, [r3, #5]
 8001760:	3301      	adds	r3, #1
 8001762:	b2da      	uxtb	r2, r3
 8001764:	4b1b      	ldr	r3, [pc, #108]	@ (80017d4 <tasksch_execTask+0x140>)
 8001766:	715a      	strb	r2, [r3, #5]
                    vTaskSch_taskList[idx].cycledOnce_flag = true;
 8001768:	79fa      	ldrb	r2, [r7, #7]
 800176a:	491b      	ldr	r1, [pc, #108]	@ (80017d8 <tasksch_execTask+0x144>)
 800176c:	4613      	mov	r3, r2
 800176e:	005b      	lsls	r3, r3, #1
 8001770:	4413      	add	r3, r2
 8001772:	00db      	lsls	r3, r3, #3
 8001774:	1a9b      	subs	r3, r3, r2
 8001776:	440b      	add	r3, r1
 8001778:	330e      	adds	r3, #14
 800177a:	2201      	movs	r2, #1
 800177c:	701a      	strb	r2, [r3, #0]
        for (uint8_t idx = 0; idx < TASKSCH_NUMBER; idx++)
 800177e:	79fb      	ldrb	r3, [r7, #7]
 8001780:	3301      	adds	r3, #1
 8001782:	71fb      	strb	r3, [r7, #7]
 8001784:	79fb      	ldrb	r3, [r7, #7]
 8001786:	2b08      	cmp	r3, #8
 8001788:	d99b      	bls.n	80016c2 <tasksch_execTask+0x2e>
                }
            }
        }
        // check major cycle
        vTaskSch_info.majorCycle_flag = tasksch_isMajorCycle();
 800178a:	f7ff fdeb 	bl	8001364 <tasksch_isMajorCycle>
 800178e:	4603      	mov	r3, r0
 8001790:	461a      	mov	r2, r3
 8001792:	4b10      	ldr	r3, [pc, #64]	@ (80017d4 <tasksch_execTask+0x140>)
 8001794:	711a      	strb	r2, [r3, #4]

        if (vTaskSch_info.majorCycle_flag == true)
 8001796:	4b0f      	ldr	r3, [pc, #60]	@ (80017d4 <tasksch_execTask+0x140>)
 8001798:	791b      	ldrb	r3, [r3, #4]
 800179a:	2b00      	cmp	r3, #0
 800179c:	d00c      	beq.n	80017b8 <tasksch_execTask+0x124>
        {
            tasksch_majorCycleEvent();
 800179e:	f7ff fe63 	bl	8001468 <tasksch_majorCycleEvent>
            exitRequested = tasksch_requestExit();
 80017a2:	f000 fa23 	bl	8001bec <tasksch_requestExit>
 80017a6:	4603      	mov	r3, r0
 80017a8:	71bb      	strb	r3, [r7, #6]
  __ASM volatile ("cpsid i" : : : "memory");
 80017aa:	b672      	cpsid	i
}
 80017ac:	bf00      	nop

            TASKSCH_DISABLE_ISR();
            vTaskSch_info.tasksch_Exit_Flag = exitRequested;
 80017ae:	4a09      	ldr	r2, [pc, #36]	@ (80017d4 <tasksch_execTask+0x140>)
 80017b0:	79bb      	ldrb	r3, [r7, #6]
 80017b2:	7193      	strb	r3, [r2, #6]
  __ASM volatile ("cpsie i" : : : "memory");
 80017b4:	b662      	cpsie	i
}
 80017b6:	bf00      	nop
    while (vTaskSch_info.tasksch_Exit_Flag == false)
 80017b8:	4b06      	ldr	r3, [pc, #24]	@ (80017d4 <tasksch_execTask+0x140>)
 80017ba:	799b      	ldrb	r3, [r3, #6]
 80017bc:	f083 0301 	eor.w	r3, r3, #1
 80017c0:	b2db      	uxtb	r3, r3
 80017c2:	2b00      	cmp	r3, #0
 80017c4:	f47f af78 	bne.w	80016b8 <tasksch_execTask+0x24>
            TASKSCH_ENABLE_ISR();
        }
    }
#if (TASKSCH_PRE_EXIT_HOOK == TASKSCH_PRE_EXIT_HOOK_ENABLE)
    tasksch_user_preExit_schedulerHook();
 80017c8:	f7ff fdc5 	bl	8001356 <tasksch_user_preExit_schedulerHook>
#endif
}
 80017cc:	bf00      	nop
 80017ce:	3708      	adds	r7, #8
 80017d0:	46bd      	mov	sp, r7
 80017d2:	bd80      	pop	{r7, pc}
 80017d4:	200001e4 	.word	0x200001e4
 80017d8:	20000114 	.word	0x20000114

080017dc <tasksch_timeManager>:

void tasksch_timeManager(void)
{
 80017dc:	b580      	push	{r7, lr}
 80017de:	b082      	sub	sp, #8
 80017e0:	af00      	add	r7, sp, #0
    uint8_t idx = 0;
 80017e2:	2300      	movs	r3, #0
 80017e4:	71fb      	strb	r3, [r7, #7]

    if (vTaskSch_info.tasksch_Exit_Flag == true || vTaskSch_info.isInitialized == false)
 80017e6:	4b4d      	ldr	r3, [pc, #308]	@ (800191c <tasksch_timeManager+0x140>)
 80017e8:	799b      	ldrb	r3, [r3, #6]
 80017ea:	2b00      	cmp	r3, #0
 80017ec:	f040 8091 	bne.w	8001912 <tasksch_timeManager+0x136>
 80017f0:	4b4a      	ldr	r3, [pc, #296]	@ (800191c <tasksch_timeManager+0x140>)
 80017f2:	781b      	ldrb	r3, [r3, #0]
 80017f4:	f083 0301 	eor.w	r3, r3, #1
 80017f8:	b2db      	uxtb	r3, r3
 80017fa:	2b00      	cmp	r3, #0
 80017fc:	f040 8089 	bne.w	8001912 <tasksch_timeManager+0x136>
        return;

    for (; idx < TASKSCH_NUMBER; idx++)
 8001800:	e080      	b.n	8001904 <tasksch_timeManager+0x128>
    {
        if (vTaskSch_taskList[idx].offset_ms > 0)
 8001802:	79fa      	ldrb	r2, [r7, #7]
 8001804:	4946      	ldr	r1, [pc, #280]	@ (8001920 <tasksch_timeManager+0x144>)
 8001806:	4613      	mov	r3, r2
 8001808:	005b      	lsls	r3, r3, #1
 800180a:	4413      	add	r3, r2
 800180c:	00db      	lsls	r3, r3, #3
 800180e:	1a9b      	subs	r3, r3, r2
 8001810:	440b      	add	r3, r1
 8001812:	f8b3 3007 	ldrh.w	r3, [r3, #7]
 8001816:	b29b      	uxth	r3, r3
 8001818:	2b00      	cmp	r3, #0
 800181a:	d017      	beq.n	800184c <tasksch_timeManager+0x70>
        {
            vTaskSch_taskList[idx].offset_ms--;
 800181c:	79fa      	ldrb	r2, [r7, #7]
 800181e:	4940      	ldr	r1, [pc, #256]	@ (8001920 <tasksch_timeManager+0x144>)
 8001820:	4613      	mov	r3, r2
 8001822:	005b      	lsls	r3, r3, #1
 8001824:	4413      	add	r3, r2
 8001826:	00db      	lsls	r3, r3, #3
 8001828:	1a9b      	subs	r3, r3, r2
 800182a:	440b      	add	r3, r1
 800182c:	f8b3 3007 	ldrh.w	r3, [r3, #7]
 8001830:	b29b      	uxth	r3, r3
 8001832:	3b01      	subs	r3, #1
 8001834:	b298      	uxth	r0, r3
 8001836:	493a      	ldr	r1, [pc, #232]	@ (8001920 <tasksch_timeManager+0x144>)
 8001838:	4613      	mov	r3, r2
 800183a:	005b      	lsls	r3, r3, #1
 800183c:	4413      	add	r3, r2
 800183e:	00db      	lsls	r3, r3, #3
 8001840:	1a9b      	subs	r3, r3, r2
 8001842:	440b      	add	r3, r1
 8001844:	4602      	mov	r2, r0
 8001846:	f8a3 2007 	strh.w	r2, [r3, #7]
 800184a:	e058      	b.n	80018fe <tasksch_timeManager+0x122>
        }
        else
        {
            vTaskSch_taskList[idx].curTick_ms++;
 800184c:	79fa      	ldrb	r2, [r7, #7]
 800184e:	4934      	ldr	r1, [pc, #208]	@ (8001920 <tasksch_timeManager+0x144>)
 8001850:	4613      	mov	r3, r2
 8001852:	005b      	lsls	r3, r3, #1
 8001854:	4413      	add	r3, r2
 8001856:	00db      	lsls	r3, r3, #3
 8001858:	1a9b      	subs	r3, r3, r2
 800185a:	440b      	add	r3, r1
 800185c:	3308      	adds	r3, #8
 800185e:	f8d3 3001 	ldr.w	r3, [r3, #1]
 8001862:	1c59      	adds	r1, r3, #1
 8001864:	482e      	ldr	r0, [pc, #184]	@ (8001920 <tasksch_timeManager+0x144>)
 8001866:	4613      	mov	r3, r2
 8001868:	005b      	lsls	r3, r3, #1
 800186a:	4413      	add	r3, r2
 800186c:	00db      	lsls	r3, r3, #3
 800186e:	1a9b      	subs	r3, r3, r2
 8001870:	4403      	add	r3, r0
 8001872:	3308      	adds	r3, #8
 8001874:	f8c3 1001 	str.w	r1, [r3, #1]
            if (vTaskSch_taskList[idx].curTick_ms >= vTaskSch_taskList[idx].period_ms)
 8001878:	79fa      	ldrb	r2, [r7, #7]
 800187a:	4929      	ldr	r1, [pc, #164]	@ (8001920 <tasksch_timeManager+0x144>)
 800187c:	4613      	mov	r3, r2
 800187e:	005b      	lsls	r3, r3, #1
 8001880:	4413      	add	r3, r2
 8001882:	00db      	lsls	r3, r3, #3
 8001884:	1a9b      	subs	r3, r3, r2
 8001886:	440b      	add	r3, r1
 8001888:	3308      	adds	r3, #8
 800188a:	f8d3 1001 	ldr.w	r1, [r3, #1]
 800188e:	79fa      	ldrb	r2, [r7, #7]
 8001890:	4823      	ldr	r0, [pc, #140]	@ (8001920 <tasksch_timeManager+0x144>)
 8001892:	4613      	mov	r3, r2
 8001894:	005b      	lsls	r3, r3, #1
 8001896:	4413      	add	r3, r2
 8001898:	00db      	lsls	r3, r3, #3
 800189a:	1a9b      	subs	r3, r3, r2
 800189c:	4403      	add	r3, r0
 800189e:	f8b3 3005 	ldrh.w	r3, [r3, #5]
 80018a2:	b29b      	uxth	r3, r3
 80018a4:	4299      	cmp	r1, r3
 80018a6:	d32a      	bcc.n	80018fe <tasksch_timeManager+0x122>
            {
                tasksch_detectOverRun(&vTaskSch_taskList[idx]); // detect overrun
 80018a8:	79fa      	ldrb	r2, [r7, #7]
 80018aa:	4613      	mov	r3, r2
 80018ac:	005b      	lsls	r3, r3, #1
 80018ae:	4413      	add	r3, r2
 80018b0:	00db      	lsls	r3, r3, #3
 80018b2:	1a9b      	subs	r3, r3, r2
 80018b4:	4a1a      	ldr	r2, [pc, #104]	@ (8001920 <tasksch_timeManager+0x144>)
 80018b6:	4413      	add	r3, r2
 80018b8:	4618      	mov	r0, r3
 80018ba:	f7ff fe66 	bl	800158a <tasksch_detectOverRun>
                vTaskSch_taskList[idx].exec_flag = true;
 80018be:	79fa      	ldrb	r2, [r7, #7]
 80018c0:	4917      	ldr	r1, [pc, #92]	@ (8001920 <tasksch_timeManager+0x144>)
 80018c2:	4613      	mov	r3, r2
 80018c4:	005b      	lsls	r3, r3, #1
 80018c6:	4413      	add	r3, r2
 80018c8:	00db      	lsls	r3, r3, #3
 80018ca:	1a9b      	subs	r3, r3, r2
 80018cc:	440b      	add	r3, r1
 80018ce:	330d      	adds	r3, #13
 80018d0:	2201      	movs	r2, #1
 80018d2:	701a      	strb	r2, [r3, #0]
                vTaskSch_taskList[idx].curTick_ms = 0;
 80018d4:	79fa      	ldrb	r2, [r7, #7]
 80018d6:	4912      	ldr	r1, [pc, #72]	@ (8001920 <tasksch_timeManager+0x144>)
 80018d8:	4613      	mov	r3, r2
 80018da:	005b      	lsls	r3, r3, #1
 80018dc:	4413      	add	r3, r2
 80018de:	00db      	lsls	r3, r3, #3
 80018e0:	1a9b      	subs	r3, r3, r2
 80018e2:	440b      	add	r3, r1
 80018e4:	3308      	adds	r3, #8
 80018e6:	785a      	ldrb	r2, [r3, #1]
 80018e8:	2200      	movs	r2, #0
 80018ea:	705a      	strb	r2, [r3, #1]
 80018ec:	789a      	ldrb	r2, [r3, #2]
 80018ee:	2200      	movs	r2, #0
 80018f0:	709a      	strb	r2, [r3, #2]
 80018f2:	78da      	ldrb	r2, [r3, #3]
 80018f4:	2200      	movs	r2, #0
 80018f6:	70da      	strb	r2, [r3, #3]
 80018f8:	791a      	ldrb	r2, [r3, #4]
 80018fa:	2200      	movs	r2, #0
 80018fc:	711a      	strb	r2, [r3, #4]
    for (; idx < TASKSCH_NUMBER; idx++)
 80018fe:	79fb      	ldrb	r3, [r7, #7]
 8001900:	3301      	adds	r3, #1
 8001902:	71fb      	strb	r3, [r7, #7]
 8001904:	79fb      	ldrb	r3, [r7, #7]
 8001906:	2b08      	cmp	r3, #8
 8001908:	f67f af7b 	bls.w	8001802 <tasksch_timeManager+0x26>
            }
        }
    }

    tasksch_updateExecClock();
 800190c:	f7ff fdf2 	bl	80014f4 <tasksch_updateExecClock>
 8001910:	e000      	b.n	8001914 <tasksch_timeManager+0x138>
        return;
 8001912:	bf00      	nop
}
 8001914:	3708      	adds	r7, #8
 8001916:	46bd      	mov	sp, r7
 8001918:	bd80      	pop	{r7, pc}
 800191a:	bf00      	nop
 800191c:	200001e4 	.word	0x200001e4
 8001920:	20000114 	.word	0x20000114

08001924 <Task_1ms>:
/* Define your Task */

// INFO : The prototype of the function is "void function01(void)"

void Task_1ms(void)
{
 8001924:	b580      	push	{r7, lr}
 8001926:	af00      	add	r7, sp, #0
	throttle_update_proc();
 8001928:	f7ff f96c 	bl	8000c04 <throttle_update_proc>
    mtrCtrl_PI_update();
 800192c:	f7fe fede 	bl	80006ec <mtrCtrl_PI_update>

    mtrCtrl_setFinalCCR_refVal();
 8001930:	f7fe ffdc 	bl	80008ec <mtrCtrl_setFinalCCR_refVal>
}
 8001934:	bf00      	nop
 8001936:	bd80      	pop	{r7, pc}

08001938 <Task_10ms>:

void Task_10ms(void)
{
 8001938:	b580      	push	{r7, lr}
 800193a:	af00      	add	r7, sp, #0
	mtrCtrl_calc_mtrSpeed();
 800193c:	f7fe ffb0 	bl	80008a0 <mtrCtrl_calc_mtrSpeed>
    mtrCtrl_setSelCtrlMode(vMtrCtrl_system.userMode);
 8001940:	4b11      	ldr	r3, [pc, #68]	@ (8001988 <Task_10ms+0x50>)
 8001942:	7b9b      	ldrb	r3, [r3, #14]
 8001944:	4618      	mov	r0, r3
 8001946:	f7ff f807 	bl	8000958 <mtrCtrl_setSelCtrlMode>
    mtrCtrl_setCtrlContinue(vMtrCtrl_system.ctrlContinue_debug);
 800194a:	4b0f      	ldr	r3, [pc, #60]	@ (8001988 <Task_10ms+0x50>)
 800194c:	7b1b      	ldrb	r3, [r3, #12]
 800194e:	4618      	mov	r0, r3
 8001950:	f7ff f82a 	bl	80009a8 <mtrCtrl_setCtrlContinue>

    if(mtrCtrl_getSelCtrlMode() == MTRCTRL_CTRL_PI)
 8001954:	f7fe fff4 	bl	8000940 <mtrCtrl_getSelCtrlMode>
 8001958:	4603      	mov	r3, r0
 800195a:	2b01      	cmp	r3, #1
 800195c:	d112      	bne.n	8001984 <Task_10ms+0x4c>
    {
    	mtrCtrl_PI_setTunings(vMtrCtrl_system.userKp, vMtrCtrl_system.userKi);
 800195e:	4b0a      	ldr	r3, [pc, #40]	@ (8001988 <Task_10ms+0x50>)
 8001960:	edd3 7a00 	vldr	s15, [r3]
 8001964:	4b08      	ldr	r3, [pc, #32]	@ (8001988 <Task_10ms+0x50>)
 8001966:	ed93 7a01 	vldr	s14, [r3, #4]
 800196a:	eef0 0a47 	vmov.f32	s1, s14
 800196e:	eeb0 0a67 	vmov.f32	s0, s15
 8001972:	f7fe fe6d 	bl	8000650 <mtrCtrl_PI_setTunings>
    	mtrCtrl_PI_setRPMRef(vMtrCtrl_system.userRefRPM);
 8001976:	4b04      	ldr	r3, [pc, #16]	@ (8001988 <Task_10ms+0x50>)
 8001978:	edd3 7a02 	vldr	s15, [r3, #8]
 800197c:	eeb0 0a67 	vmov.f32	s0, s15
 8001980:	f7fe fe7c 	bl	800067c <mtrCtrl_PI_setRPMRef>
    }
}
 8001984:	bf00      	nop
 8001986:	bd80      	pop	{r7, pc}
 8001988:	20000238 	.word	0x20000238

0800198c <Task_10ms_2>:

void Task_10ms_2(void)
{
 800198c:	b580      	push	{r7, lr}
 800198e:	af00      	add	r7, sp, #0
    if(mtrCtrl_getSelCtrlMode() == MTRCTRL_CTRL_THROTTLE)
 8001990:	f7fe ffd6 	bl	8000940 <mtrCtrl_getSelCtrlMode>
 8001994:	4603      	mov	r3, r0
 8001996:	2b00      	cmp	r3, #0
 8001998:	d111      	bne.n	80019be <Task_10ms_2+0x32>
    {
        uart_debug_sendStr_polling(">refVolt:", strlen(">refVolt:"));
 800199a:	2109      	movs	r1, #9
 800199c:	4811      	ldr	r0, [pc, #68]	@ (80019e4 <Task_10ms_2+0x58>)
 800199e:	f001 fd61 	bl	8003464 <uart_debug_sendStr_polling>
        uart_debug_sendFloat_polling(throttle_get_refVolt(),2);
 80019a2:	f7ff f95d 	bl	8000c60 <throttle_get_refVolt>
 80019a6:	eef0 7a40 	vmov.f32	s15, s0
 80019aa:	2002      	movs	r0, #2
 80019ac:	eeb0 0a67 	vmov.f32	s0, s15
 80019b0:	f001 fd76 	bl	80034a0 <uart_debug_sendFloat_polling>
        uart_debug_sendStr_polling("\n", strlen("\n"));
 80019b4:	2101      	movs	r1, #1
 80019b6:	480c      	ldr	r0, [pc, #48]	@ (80019e8 <Task_10ms_2+0x5c>)
 80019b8:	f001 fd54 	bl	8003464 <uart_debug_sendStr_polling>
    {
        uart_debug_sendStr_polling(">refRPM:", strlen(">refRPM:"));
        uart_debug_sendFloat_polling(mtrCtrl_PI_getRPMRef(),2);
        uart_debug_sendStr_polling("\n", strlen("\n"));
    }
}
 80019bc:	e010      	b.n	80019e0 <Task_10ms_2+0x54>
        uart_debug_sendStr_polling(">refRPM:", strlen(">refRPM:"));
 80019be:	2108      	movs	r1, #8
 80019c0:	480a      	ldr	r0, [pc, #40]	@ (80019ec <Task_10ms_2+0x60>)
 80019c2:	f001 fd4f 	bl	8003464 <uart_debug_sendStr_polling>
        uart_debug_sendFloat_polling(mtrCtrl_PI_getRPMRef(),2);
 80019c6:	f7fe fe83 	bl	80006d0 <mtrCtrl_PI_getRPMRef>
 80019ca:	eef0 7a40 	vmov.f32	s15, s0
 80019ce:	2002      	movs	r0, #2
 80019d0:	eeb0 0a67 	vmov.f32	s0, s15
 80019d4:	f001 fd64 	bl	80034a0 <uart_debug_sendFloat_polling>
        uart_debug_sendStr_polling("\n", strlen("\n"));
 80019d8:	2101      	movs	r1, #1
 80019da:	4803      	ldr	r0, [pc, #12]	@ (80019e8 <Task_10ms_2+0x5c>)
 80019dc:	f001 fd42 	bl	8003464 <uart_debug_sendStr_polling>
}
 80019e0:	bf00      	nop
 80019e2:	bd80      	pop	{r7, pc}
 80019e4:	08003838 	.word	0x08003838
 80019e8:	08003844 	.word	0x08003844
 80019ec:	08003848 	.word	0x08003848

080019f0 <Task_10ms_4>:

void Task_10ms_4(void)
{
 80019f0:	b580      	push	{r7, lr}
 80019f2:	af00      	add	r7, sp, #0
	uart_debug_sendStr_polling(">RPM:", strlen(">RPM:"));
 80019f4:	2105      	movs	r1, #5
 80019f6:	4809      	ldr	r0, [pc, #36]	@ (8001a1c <Task_10ms_4+0x2c>)
 80019f8:	f001 fd34 	bl	8003464 <uart_debug_sendStr_polling>
	uart_debug_sendFloat_polling(hallsens_get_motorRPM(),1);
 80019fc:	f7fe fdfe 	bl	80005fc <hallsens_get_motorRPM>
 8001a00:	eef0 7a40 	vmov.f32	s15, s0
 8001a04:	2001      	movs	r0, #1
 8001a06:	eeb0 0a67 	vmov.f32	s0, s15
 8001a0a:	f001 fd49 	bl	80034a0 <uart_debug_sendFloat_polling>
	uart_debug_sendStr_polling("\n", strlen("\n"));
 8001a0e:	2101      	movs	r1, #1
 8001a10:	4803      	ldr	r0, [pc, #12]	@ (8001a20 <Task_10ms_4+0x30>)
 8001a12:	f001 fd27 	bl	8003464 <uart_debug_sendStr_polling>
}
 8001a16:	bf00      	nop
 8001a18:	bd80      	pop	{r7, pc}
 8001a1a:	bf00      	nop
 8001a1c:	08003854 	.word	0x08003854
 8001a20:	08003844 	.word	0x08003844

08001a24 <Task_10ms_6>:

void Task_10ms_6(void)
{
 8001a24:	b580      	push	{r7, lr}
 8001a26:	af00      	add	r7, sp, #0
	uart_debug_sendStr_polling(">Imax:", strlen(">Imax:"));
 8001a28:	2106      	movs	r1, #6
 8001a2a:	4809      	ldr	r0, [pc, #36]	@ (8001a50 <Task_10ms_6+0x2c>)
 8001a2c:	f001 fd1a 	bl	8003464 <uart_debug_sendStr_polling>
	uart_debug_sendFloat_polling(sensing_getIphase_max(), 1);
 8001a30:	f7ff fb8c 	bl	800114c <sensing_getIphase_max>
 8001a34:	eef0 7a40 	vmov.f32	s15, s0
 8001a38:	2001      	movs	r0, #1
 8001a3a:	eeb0 0a67 	vmov.f32	s0, s15
 8001a3e:	f001 fd2f 	bl	80034a0 <uart_debug_sendFloat_polling>
	uart_debug_sendStr_polling("\n", strlen("\n"));
 8001a42:	2101      	movs	r1, #1
 8001a44:	4803      	ldr	r0, [pc, #12]	@ (8001a54 <Task_10ms_6+0x30>)
 8001a46:	f001 fd0d 	bl	8003464 <uart_debug_sendStr_polling>
}
 8001a4a:	bf00      	nop
 8001a4c:	bd80      	pop	{r7, pc}
 8001a4e:	bf00      	nop
 8001a50:	0800385c 	.word	0x0800385c
 8001a54:	08003844 	.word	0x08003844

08001a58 <Task_10ms_8>:

void Task_10ms_8(void)
{
 8001a58:	b580      	push	{r7, lr}
 8001a5a:	af00      	add	r7, sp, #0
	uart_debug_sendStr_polling(">refCCR:", strlen(">refCCR:"));
 8001a5c:	2108      	movs	r1, #8
 8001a5e:	4807      	ldr	r0, [pc, #28]	@ (8001a7c <Task_10ms_8+0x24>)
 8001a60:	f001 fd00 	bl	8003464 <uart_debug_sendStr_polling>
	uart_debug_sendInt_polling(mtrCtrl_getFinalCCR_refVal());
 8001a64:	f7fe ff60 	bl	8000928 <mtrCtrl_getFinalCCR_refVal>
 8001a68:	4603      	mov	r3, r0
 8001a6a:	4618      	mov	r0, r3
 8001a6c:	f001 fd0a 	bl	8003484 <uart_debug_sendInt_polling>
	uart_debug_sendStr_polling("\n", strlen("\n"));
 8001a70:	2101      	movs	r1, #1
 8001a72:	4803      	ldr	r0, [pc, #12]	@ (8001a80 <Task_10ms_8+0x28>)
 8001a74:	f001 fcf6 	bl	8003464 <uart_debug_sendStr_polling>
}
 8001a78:	bf00      	nop
 8001a7a:	bd80      	pop	{r7, pc}
 8001a7c:	08003864 	.word	0x08003864
 8001a80:	08003844 	.word	0x08003844

08001a84 <Task_100ms>:

void Task_100ms(void)
{
 8001a84:	b580      	push	{r7, lr}
 8001a86:	af00      	add	r7, sp, #0
	mtrCtrl_chkErrSt(MTRCTRL_ERR_MOS_HOT);
 8001a88:	2002      	movs	r0, #2
 8001a8a:	f7fe ffa9 	bl	80009e0 <mtrCtrl_chkErrSt>
	mtrCtrl_chkErrSt(MTRCTRL_ERR_UNDER_VOLT);
 8001a8e:	2004      	movs	r0, #4
 8001a90:	f7fe ffa6 	bl	80009e0 <mtrCtrl_chkErrSt>
}
 8001a94:	bf00      	nop
 8001a96:	bd80      	pop	{r7, pc}

08001a98 <Task_500ms>:

void Task_500ms(void)
{
 8001a98:	b580      	push	{r7, lr}
 8001a9a:	af00      	add	r7, sp, #0
    uart_AT09_sendStr_polling("\r\nfaultNum : ", strlen("\r\nfaultNum : "));
    uart_AT09_sendFloat_polling(mtrCtrl_getErrCode(),1);

    uart_AT09_sendStr_polling("\r\n\n",strlen("\r\n\n")); */

	gpio_toggle_pin(FLT_LED_Port, 6);
 8001a9c:	2106      	movs	r1, #6
 8001a9e:	4802      	ldr	r0, [pc, #8]	@ (8001aa8 <Task_500ms+0x10>)
 8001aa0:	f000 fa55 	bl	8001f4e <gpio_toggle_pin>
}
 8001aa4:	bf00      	nop
 8001aa6:	bd80      	pop	{r7, pc}
 8001aa8:	40020800 	.word	0x40020800

08001aac <Task_1sec>:

void Task_1sec(void)
{
 8001aac:	b480      	push	{r7}
 8001aae:	af00      	add	r7, sp, #0

}
 8001ab0:	bf00      	nop
 8001ab2:	46bd      	mov	sp, r7
 8001ab4:	f85d 7b04 	ldr.w	r7, [sp], #4
 8001ab8:	4770      	bx	lr
	...

08001abc <tasksch_init_RegiTaskObj>:

void tasksch_init_RegiTaskObj(void)
{
 8001abc:	b480      	push	{r7}
 8001abe:	af00      	add	r7, sp, #0
    /* hard-coded Registor task initialization */

    // 1. 1ms 핵심 제어 태스크
    vUserRegiTaskObj[0].regiTaskFunc_ptr = Task_1ms;
 8001ac0:	4b2c      	ldr	r3, [pc, #176]	@ (8001b74 <tasksch_init_RegiTaskObj+0xb8>)
 8001ac2:	4a2d      	ldr	r2, [pc, #180]	@ (8001b78 <tasksch_init_RegiTaskObj+0xbc>)
 8001ac4:	601a      	str	r2, [r3, #0]
    vUserRegiTaskObj[0].regiTaskOffset_ms = 0;
 8001ac6:	4b2b      	ldr	r3, [pc, #172]	@ (8001b74 <tasksch_init_RegiTaskObj+0xb8>)
 8001ac8:	2200      	movs	r2, #0
 8001aca:	80da      	strh	r2, [r3, #6]
    vUserRegiTaskObj[0].regiTaskPeriod_ms = 1;
 8001acc:	4b29      	ldr	r3, [pc, #164]	@ (8001b74 <tasksch_init_RegiTaskObj+0xb8>)
 8001ace:	2201      	movs	r2, #1
 8001ad0:	809a      	strh	r2, [r3, #4]

    // 2. 10ms 모터 상태 연산 태스크
    vUserRegiTaskObj[1].regiTaskFunc_ptr = Task_10ms;
 8001ad2:	4b28      	ldr	r3, [pc, #160]	@ (8001b74 <tasksch_init_RegiTaskObj+0xb8>)
 8001ad4:	4a29      	ldr	r2, [pc, #164]	@ (8001b7c <tasksch_init_RegiTaskObj+0xc0>)
 8001ad6:	609a      	str	r2, [r3, #8]
    vUserRegiTaskObj[1].regiTaskOffset_ms = 0;
 8001ad8:	4b26      	ldr	r3, [pc, #152]	@ (8001b74 <tasksch_init_RegiTaskObj+0xb8>)
 8001ada:	2200      	movs	r2, #0
 8001adc:	81da      	strh	r2, [r3, #14]
    vUserRegiTaskObj[1].regiTaskPeriod_ms = 10;
 8001ade:	4b25      	ldr	r3, [pc, #148]	@ (8001b74 <tasksch_init_RegiTaskObj+0xb8>)
 8001ae0:	220a      	movs	r2, #10
 8001ae2:	819a      	strh	r2, [r3, #12]

    // 3. 10ms UART 분산 전송 태스크 (Phase: 2ms)
    vUserRegiTaskObj[2].regiTaskFunc_ptr = Task_10ms_2;
 8001ae4:	4b23      	ldr	r3, [pc, #140]	@ (8001b74 <tasksch_init_RegiTaskObj+0xb8>)
 8001ae6:	4a26      	ldr	r2, [pc, #152]	@ (8001b80 <tasksch_init_RegiTaskObj+0xc4>)
 8001ae8:	611a      	str	r2, [r3, #16]
    vUserRegiTaskObj[2].regiTaskOffset_ms = 2;
 8001aea:	4b22      	ldr	r3, [pc, #136]	@ (8001b74 <tasksch_init_RegiTaskObj+0xb8>)
 8001aec:	2202      	movs	r2, #2
 8001aee:	82da      	strh	r2, [r3, #22]
    vUserRegiTaskObj[2].regiTaskPeriod_ms = 10;
 8001af0:	4b20      	ldr	r3, [pc, #128]	@ (8001b74 <tasksch_init_RegiTaskObj+0xb8>)
 8001af2:	220a      	movs	r2, #10
 8001af4:	829a      	strh	r2, [r3, #20]

    // 4. 10ms UART 분산 전송 태스크 (Phase: 4ms)
    vUserRegiTaskObj[3].regiTaskFunc_ptr = Task_10ms_4;
 8001af6:	4b1f      	ldr	r3, [pc, #124]	@ (8001b74 <tasksch_init_RegiTaskObj+0xb8>)
 8001af8:	4a22      	ldr	r2, [pc, #136]	@ (8001b84 <tasksch_init_RegiTaskObj+0xc8>)
 8001afa:	619a      	str	r2, [r3, #24]
    vUserRegiTaskObj[3].regiTaskOffset_ms = 4;
 8001afc:	4b1d      	ldr	r3, [pc, #116]	@ (8001b74 <tasksch_init_RegiTaskObj+0xb8>)
 8001afe:	2204      	movs	r2, #4
 8001b00:	83da      	strh	r2, [r3, #30]
    vUserRegiTaskObj[3].regiTaskPeriod_ms = 10;
 8001b02:	4b1c      	ldr	r3, [pc, #112]	@ (8001b74 <tasksch_init_RegiTaskObj+0xb8>)
 8001b04:	220a      	movs	r2, #10
 8001b06:	839a      	strh	r2, [r3, #28]

    // 5. 10ms UART 분산 전송 태스크 (Phase: 6ms)
    vUserRegiTaskObj[4].regiTaskFunc_ptr = Task_10ms_6;
 8001b08:	4b1a      	ldr	r3, [pc, #104]	@ (8001b74 <tasksch_init_RegiTaskObj+0xb8>)
 8001b0a:	4a1f      	ldr	r2, [pc, #124]	@ (8001b88 <tasksch_init_RegiTaskObj+0xcc>)
 8001b0c:	621a      	str	r2, [r3, #32]
    vUserRegiTaskObj[4].regiTaskOffset_ms = 6;
 8001b0e:	4b19      	ldr	r3, [pc, #100]	@ (8001b74 <tasksch_init_RegiTaskObj+0xb8>)
 8001b10:	2206      	movs	r2, #6
 8001b12:	84da      	strh	r2, [r3, #38]	@ 0x26
    vUserRegiTaskObj[4].regiTaskPeriod_ms = 10;
 8001b14:	4b17      	ldr	r3, [pc, #92]	@ (8001b74 <tasksch_init_RegiTaskObj+0xb8>)
 8001b16:	220a      	movs	r2, #10
 8001b18:	849a      	strh	r2, [r3, #36]	@ 0x24

    // 6. 10ms UART 분산 전송 태스크 (Phase: 8ms)
    vUserRegiTaskObj[5].regiTaskFunc_ptr = Task_10ms_8;
 8001b1a:	4b16      	ldr	r3, [pc, #88]	@ (8001b74 <tasksch_init_RegiTaskObj+0xb8>)
 8001b1c:	4a1b      	ldr	r2, [pc, #108]	@ (8001b8c <tasksch_init_RegiTaskObj+0xd0>)
 8001b1e:	629a      	str	r2, [r3, #40]	@ 0x28
    vUserRegiTaskObj[5].regiTaskOffset_ms = 8;
 8001b20:	4b14      	ldr	r3, [pc, #80]	@ (8001b74 <tasksch_init_RegiTaskObj+0xb8>)
 8001b22:	2208      	movs	r2, #8
 8001b24:	85da      	strh	r2, [r3, #46]	@ 0x2e
    vUserRegiTaskObj[5].regiTaskPeriod_ms = 10;
 8001b26:	4b13      	ldr	r3, [pc, #76]	@ (8001b74 <tasksch_init_RegiTaskObj+0xb8>)
 8001b28:	220a      	movs	r2, #10
 8001b2a:	859a      	strh	r2, [r3, #44]	@ 0x2c

    // 7. 100ms 에러 감시 태스크
    vUserRegiTaskObj[6].regiTaskFunc_ptr = Task_100ms;
 8001b2c:	4b11      	ldr	r3, [pc, #68]	@ (8001b74 <tasksch_init_RegiTaskObj+0xb8>)
 8001b2e:	4a18      	ldr	r2, [pc, #96]	@ (8001b90 <tasksch_init_RegiTaskObj+0xd4>)
 8001b30:	631a      	str	r2, [r3, #48]	@ 0x30
    vUserRegiTaskObj[6].regiTaskOffset_ms = 0;
 8001b32:	4b10      	ldr	r3, [pc, #64]	@ (8001b74 <tasksch_init_RegiTaskObj+0xb8>)
 8001b34:	2200      	movs	r2, #0
 8001b36:	86da      	strh	r2, [r3, #54]	@ 0x36
    vUserRegiTaskObj[6].regiTaskPeriod_ms = 100;
 8001b38:	4b0e      	ldr	r3, [pc, #56]	@ (8001b74 <tasksch_init_RegiTaskObj+0xb8>)
 8001b3a:	2264      	movs	r2, #100	@ 0x64
 8001b3c:	869a      	strh	r2, [r3, #52]	@ 0x34

    // 8. 500ms 시스템 상태 표시 (하트비트 LED)
    vUserRegiTaskObj[7].regiTaskFunc_ptr = Task_500ms;
 8001b3e:	4b0d      	ldr	r3, [pc, #52]	@ (8001b74 <tasksch_init_RegiTaskObj+0xb8>)
 8001b40:	4a14      	ldr	r2, [pc, #80]	@ (8001b94 <tasksch_init_RegiTaskObj+0xd8>)
 8001b42:	639a      	str	r2, [r3, #56]	@ 0x38
    vUserRegiTaskObj[7].regiTaskOffset_ms = 0;
 8001b44:	4b0b      	ldr	r3, [pc, #44]	@ (8001b74 <tasksch_init_RegiTaskObj+0xb8>)
 8001b46:	2200      	movs	r2, #0
 8001b48:	87da      	strh	r2, [r3, #62]	@ 0x3e
    vUserRegiTaskObj[7].regiTaskPeriod_ms = 500;
 8001b4a:	4b0a      	ldr	r3, [pc, #40]	@ (8001b74 <tasksch_init_RegiTaskObj+0xb8>)
 8001b4c:	f44f 72fa 	mov.w	r2, #500	@ 0x1f4
 8001b50:	879a      	strh	r2, [r3, #60]	@ 0x3c

    // 9. 1sec 시스템
    vUserRegiTaskObj[8].regiTaskFunc_ptr = Task_1sec;
 8001b52:	4b08      	ldr	r3, [pc, #32]	@ (8001b74 <tasksch_init_RegiTaskObj+0xb8>)
 8001b54:	4a10      	ldr	r2, [pc, #64]	@ (8001b98 <tasksch_init_RegiTaskObj+0xdc>)
 8001b56:	641a      	str	r2, [r3, #64]	@ 0x40
    vUserRegiTaskObj[8].regiTaskOffset_ms = 0;
 8001b58:	4b06      	ldr	r3, [pc, #24]	@ (8001b74 <tasksch_init_RegiTaskObj+0xb8>)
 8001b5a:	2200      	movs	r2, #0
 8001b5c:	f8a3 2046 	strh.w	r2, [r3, #70]	@ 0x46
    vUserRegiTaskObj[8].regiTaskPeriod_ms = 1000;
 8001b60:	4b04      	ldr	r3, [pc, #16]	@ (8001b74 <tasksch_init_RegiTaskObj+0xb8>)
 8001b62:	f44f 727a 	mov.w	r2, #1000	@ 0x3e8
 8001b66:	f8a3 2044 	strh.w	r2, [r3, #68]	@ 0x44
}
 8001b6a:	bf00      	nop
 8001b6c:	46bd      	mov	sp, r7
 8001b6e:	f85d 7b04 	ldr.w	r7, [sp], #4
 8001b72:	4770      	bx	lr
 8001b74:	200001f0 	.word	0x200001f0
 8001b78:	08001925 	.word	0x08001925
 8001b7c:	08001939 	.word	0x08001939
 8001b80:	0800198d 	.word	0x0800198d
 8001b84:	080019f1 	.word	0x080019f1
 8001b88:	08001a25 	.word	0x08001a25
 8001b8c:	08001a59 	.word	0x08001a59
 8001b90:	08001a85 	.word	0x08001a85
 8001b94:	08001a99 	.word	0x08001a99
 8001b98:	08001aad 	.word	0x08001aad

08001b9c <tasksch_userInitCmpltHook>:
*/

/* Define your Watchdog Functions */

void tasksch_userInitCmpltHook(void)
{
 8001b9c:	b580      	push	{r7, lr}
 8001b9e:	af00      	add	r7, sp, #0
    // MCAL 상위 계층의 모듈들 전부 초기화
	adc_offsetCalib();
 8001ba0:	f000 fa12 	bl	8001fc8 <adc_offsetCalib>
    utils_LPF_RPM_init();
 8001ba4:	f001 fcc8 	bl	8003538 <utils_LPF_RPM_init>
    utils_LPF_phaseCurr_init();
 8001ba8:	f001 fce6 	bl	8003578 <utils_LPF_phaseCurr_init>
    hallsens_init();
 8001bac:	f7fe fb84 	bl	80002b8 <hallsens_init>
    sensing_objs_Init();
 8001bb0:	f7ff fada 	bl	8001168 <sensing_objs_Init>

    vMtrCtrl_system.ctrlContinue_debug = true;
 8001bb4:	4b0c      	ldr	r3, [pc, #48]	@ (8001be8 <tasksch_userInitCmpltHook+0x4c>)
 8001bb6:	2201      	movs	r2, #1
 8001bb8:	731a      	strb	r2, [r3, #12]
    vMtrCtrl_system.userMode = MTRCTRL_CTRL_THROTTLE;
 8001bba:	4b0b      	ldr	r3, [pc, #44]	@ (8001be8 <tasksch_userInitCmpltHook+0x4c>)
 8001bbc:	2200      	movs	r2, #0
 8001bbe:	739a      	strb	r2, [r3, #14]
    vMtrCtrl_system.userKi = 0;
 8001bc0:	4b09      	ldr	r3, [pc, #36]	@ (8001be8 <tasksch_userInitCmpltHook+0x4c>)
 8001bc2:	f04f 0200 	mov.w	r2, #0
 8001bc6:	605a      	str	r2, [r3, #4]
    vMtrCtrl_system.userKp = 0;
 8001bc8:	4b07      	ldr	r3, [pc, #28]	@ (8001be8 <tasksch_userInitCmpltHook+0x4c>)
 8001bca:	f04f 0200 	mov.w	r2, #0
 8001bce:	601a      	str	r2, [r3, #0]
    vMtrCtrl_system.userRefRPM = 0;
 8001bd0:	4b05      	ldr	r3, [pc, #20]	@ (8001be8 <tasksch_userInitCmpltHook+0x4c>)
 8001bd2:	f04f 0200 	mov.w	r2, #0
 8001bd6:	609a      	str	r2, [r3, #8]
    vMtrCtrl_system.turnOff = false;
 8001bd8:	4b03      	ldr	r3, [pc, #12]	@ (8001be8 <tasksch_userInitCmpltHook+0x4c>)
 8001bda:	2200      	movs	r2, #0
 8001bdc:	735a      	strb	r2, [r3, #13]

    mtrCtrl_setAppInit_flg();
 8001bde:	f7fe ff73 	bl	8000ac8 <mtrCtrl_setAppInit_flg>
}
 8001be2:	bf00      	nop
 8001be4:	bd80      	pop	{r7, pc}
 8001be6:	bf00      	nop
 8001be8:	20000238 	.word	0x20000238

08001bec <tasksch_requestExit>:

bool tasksch_requestExit(void)
{
 8001bec:	b480      	push	{r7}
 8001bee:	af00      	add	r7, sp, #0
    return vMtrCtrl_system.turnOff;
 8001bf0:	4b03      	ldr	r3, [pc, #12]	@ (8001c00 <tasksch_requestExit+0x14>)
 8001bf2:	7b5b      	ldrb	r3, [r3, #13]
}
 8001bf4:	4618      	mov	r0, r3
 8001bf6:	46bd      	mov	sp, r7
 8001bf8:	f85d 7b04 	ldr.w	r7, [sp], #4
 8001bfc:	4770      	bx	lr
 8001bfe:	bf00      	nop
 8001c00:	20000238 	.word	0x20000238

08001c04 <tasksch_initWatchdog>:

bool tasksch_initWatchdog(void)
{
 8001c04:	b480      	push	{r7}
 8001c06:	b083      	sub	sp, #12
 8001c08:	af00      	add	r7, sp, #0
    // User can override this function in tasksch_config.c
    bool result = false;
 8001c0a:	2300      	movs	r3, #0
 8001c0c:	71fb      	strb	r3, [r7, #7]

#ifdef TASKSCH_STM32_HAL_USE
    result = true;
#endif
#else
    result = true;
 8001c0e:	2301      	movs	r3, #1
 8001c10:	71fb      	strb	r3, [r7, #7]
#endif
    return result;
 8001c12:	79fb      	ldrb	r3, [r7, #7]
}
 8001c14:	4618      	mov	r0, r3
 8001c16:	370c      	adds	r7, #12
 8001c18:	46bd      	mov	sp, r7
 8001c1a:	f85d 7b04 	ldr.w	r7, [sp], #4
 8001c1e:	4770      	bx	lr

08001c20 <tasksch_beginWatchdog>:

bool tasksch_beginWatchdog(void)
{
 8001c20:	b480      	push	{r7}
 8001c22:	b083      	sub	sp, #12
 8001c24:	af00      	add	r7, sp, #0
    // User can override this function in tasksch_config.c
    bool result = false;
 8001c26:	2300      	movs	r3, #0
 8001c28:	71fb      	strb	r3, [r7, #7]

    result = (HAL_IWDG_Init(&hiwdg) != HAL_OK) ? false : true;
#endif

#else
    result = true;
 8001c2a:	2301      	movs	r3, #1
 8001c2c:	71fb      	strb	r3, [r7, #7]
#endif
    return result;
 8001c2e:	79fb      	ldrb	r3, [r7, #7]
}
 8001c30:	4618      	mov	r0, r3
 8001c32:	370c      	adds	r7, #12
 8001c34:	46bd      	mov	sp, r7
 8001c36:	f85d 7b04 	ldr.w	r7, [sp], #4
 8001c3a:	4770      	bx	lr

08001c3c <tasksch_feedWatchdog>:

bool tasksch_feedWatchdog(void)
{
 8001c3c:	b480      	push	{r7}
 8001c3e:	b083      	sub	sp, #12
 8001c40:	af00      	add	r7, sp, #0
    // User can override this function in tasksch_config.c
    bool result = false;
 8001c42:	2300      	movs	r3, #0
 8001c44:	71fb      	strb	r3, [r7, #7]
    // refresh the watchdog
    result = (HAL_IWDG_Refresh(&hiwdg) != HAL_OK) ? false : true;
    #endif
	
#else
    result = true;
 8001c46:	2301      	movs	r3, #1
 8001c48:	71fb      	strb	r3, [r7, #7]
#endif
    return result;
 8001c4a:	79fb      	ldrb	r3, [r7, #7]
}
 8001c4c:	4618      	mov	r0, r3
 8001c4e:	370c      	adds	r7, #12
 8001c50:	46bd      	mov	sp, r7
 8001c52:	f85d 7b04 	ldr.w	r7, [sp], #4
 8001c56:	4770      	bx	lr

08001c58 <tasksch_ValidateUser_RegiTaskInfos>:

/* User Registrated Task Object Initialization */
// INFO : Do not modify it below!!

bool tasksch_ValidateUser_RegiTaskInfos(void)
{
 8001c58:	b480      	push	{r7}
 8001c5a:	b083      	sub	sp, #12
 8001c5c:	af00      	add	r7, sp, #0
    bool result = true;
 8001c5e:	2301      	movs	r3, #1
 8001c60:	71fb      	strb	r3, [r7, #7]
    for (uint8_t idx = 0; idx < TASKSCH_NUMBER; idx++)
 8001c62:	2300      	movs	r3, #0
 8001c64:	71bb      	strb	r3, [r7, #6]
 8001c66:	e017      	b.n	8001c98 <tasksch_ValidateUser_RegiTaskInfos+0x40>
    {
        if (VALIDATE_TASK_INFO(vUserRegiTaskObj[idx].regiTaskFunc_ptr, vUserRegiTaskObj[idx].regiTaskPeriod_ms) == true)
 8001c68:	79bb      	ldrb	r3, [r7, #6]
 8001c6a:	4a10      	ldr	r2, [pc, #64]	@ (8001cac <tasksch_ValidateUser_RegiTaskInfos+0x54>)
 8001c6c:	f852 3033 	ldr.w	r3, [r2, r3, lsl #3]
 8001c70:	2b00      	cmp	r3, #0
 8001c72:	d006      	beq.n	8001c82 <tasksch_ValidateUser_RegiTaskInfos+0x2a>
 8001c74:	79bb      	ldrb	r3, [r7, #6]
 8001c76:	4a0d      	ldr	r2, [pc, #52]	@ (8001cac <tasksch_ValidateUser_RegiTaskInfos+0x54>)
 8001c78:	00db      	lsls	r3, r3, #3
 8001c7a:	4413      	add	r3, r2
 8001c7c:	889b      	ldrh	r3, [r3, #4]
 8001c7e:	2b00      	cmp	r3, #0
 8001c80:	d101      	bne.n	8001c86 <tasksch_ValidateUser_RegiTaskInfos+0x2e>
 8001c82:	2301      	movs	r3, #1
 8001c84:	e000      	b.n	8001c88 <tasksch_ValidateUser_RegiTaskInfos+0x30>
 8001c86:	2300      	movs	r3, #0
 8001c88:	2b01      	cmp	r3, #1
 8001c8a:	d102      	bne.n	8001c92 <tasksch_ValidateUser_RegiTaskInfos+0x3a>
        {
            result = false;
 8001c8c:	2300      	movs	r3, #0
 8001c8e:	71fb      	strb	r3, [r7, #7]
            break;
 8001c90:	e005      	b.n	8001c9e <tasksch_ValidateUser_RegiTaskInfos+0x46>
    for (uint8_t idx = 0; idx < TASKSCH_NUMBER; idx++)
 8001c92:	79bb      	ldrb	r3, [r7, #6]
 8001c94:	3301      	adds	r3, #1
 8001c96:	71bb      	strb	r3, [r7, #6]
 8001c98:	79bb      	ldrb	r3, [r7, #6]
 8001c9a:	2b08      	cmp	r3, #8
 8001c9c:	d9e4      	bls.n	8001c68 <tasksch_ValidateUser_RegiTaskInfos+0x10>
        }
    }

    return result;
 8001c9e:	79fb      	ldrb	r3, [r7, #7]
}
 8001ca0:	4618      	mov	r0, r3
 8001ca2:	370c      	adds	r7, #12
 8001ca4:	46bd      	mov	sp, r7
 8001ca6:	f85d 7b04 	ldr.w	r7, [sp], #4
 8001caa:	4770      	bx	lr
 8001cac:	200001f0 	.word	0x200001f0

08001cb0 <tasksch_getUserRegi_taskInfo>:

void tasksch_getUserRegi_taskInfo(uint8_t taskIdx, typUserRegiTaskObj *taskInfo)
{
 8001cb0:	b480      	push	{r7}
 8001cb2:	b083      	sub	sp, #12
 8001cb4:	af00      	add	r7, sp, #0
 8001cb6:	4603      	mov	r3, r0
 8001cb8:	6039      	str	r1, [r7, #0]
 8001cba:	71fb      	strb	r3, [r7, #7]
    taskInfo->regiTaskFunc_ptr = vUserRegiTaskObj[taskIdx].regiTaskFunc_ptr;
 8001cbc:	79fb      	ldrb	r3, [r7, #7]
 8001cbe:	4a0c      	ldr	r2, [pc, #48]	@ (8001cf0 <tasksch_getUserRegi_taskInfo+0x40>)
 8001cc0:	f852 2033 	ldr.w	r2, [r2, r3, lsl #3]
 8001cc4:	683b      	ldr	r3, [r7, #0]
 8001cc6:	601a      	str	r2, [r3, #0]
    taskInfo->regiTaskPeriod_ms = vUserRegiTaskObj[taskIdx].regiTaskPeriod_ms;
 8001cc8:	79fb      	ldrb	r3, [r7, #7]
 8001cca:	4a09      	ldr	r2, [pc, #36]	@ (8001cf0 <tasksch_getUserRegi_taskInfo+0x40>)
 8001ccc:	00db      	lsls	r3, r3, #3
 8001cce:	4413      	add	r3, r2
 8001cd0:	889a      	ldrh	r2, [r3, #4]
 8001cd2:	683b      	ldr	r3, [r7, #0]
 8001cd4:	809a      	strh	r2, [r3, #4]
    taskInfo->regiTaskOffset_ms = vUserRegiTaskObj[taskIdx].regiTaskOffset_ms;
 8001cd6:	79fb      	ldrb	r3, [r7, #7]
 8001cd8:	4a05      	ldr	r2, [pc, #20]	@ (8001cf0 <tasksch_getUserRegi_taskInfo+0x40>)
 8001cda:	00db      	lsls	r3, r3, #3
 8001cdc:	4413      	add	r3, r2
 8001cde:	88da      	ldrh	r2, [r3, #6]
 8001ce0:	683b      	ldr	r3, [r7, #0]
 8001ce2:	80da      	strh	r2, [r3, #6]
}
 8001ce4:	bf00      	nop
 8001ce6:	370c      	adds	r7, #12
 8001ce8:	46bd      	mov	sp, r7
 8001cea:	f85d 7b04 	ldr.w	r7, [sp], #4
 8001cee:	4770      	bx	lr
 8001cf0:	200001f0 	.word	0x200001f0

08001cf4 <gpio_set_output>:
#include "main.h"
#include "../Inc/Gpio.h"

void gpio_set_output(GPIO_TypeDef* gpio, uint8_t pin, typGPIO_Otype outType, 
    typGPIO_pull pullType, typGPIO_spd spdType)
{
 8001cf4:	b480      	push	{r7}
 8001cf6:	b083      	sub	sp, #12
 8001cf8:	af00      	add	r7, sp, #0
 8001cfa:	6078      	str	r0, [r7, #4]
 8001cfc:	4608      	mov	r0, r1
 8001cfe:	4611      	mov	r1, r2
 8001d00:	461a      	mov	r2, r3
 8001d02:	4603      	mov	r3, r0
 8001d04:	70fb      	strb	r3, [r7, #3]
 8001d06:	460b      	mov	r3, r1
 8001d08:	70bb      	strb	r3, [r7, #2]
 8001d0a:	4613      	mov	r3, r2
 8001d0c:	707b      	strb	r3, [r7, #1]
    // 1. 모드 설정 (Output: 01)
    gpio->MODER &= ~UTILS_BIT_SHIFT(pin * 2, 0x03);
 8001d0e:	687b      	ldr	r3, [r7, #4]
 8001d10:	681b      	ldr	r3, [r3, #0]
 8001d12:	78fa      	ldrb	r2, [r7, #3]
 8001d14:	0052      	lsls	r2, r2, #1
 8001d16:	2103      	movs	r1, #3
 8001d18:	fa01 f202 	lsl.w	r2, r1, r2
 8001d1c:	43d2      	mvns	r2, r2
 8001d1e:	401a      	ands	r2, r3
 8001d20:	687b      	ldr	r3, [r7, #4]
 8001d22:	601a      	str	r2, [r3, #0]
    gpio->MODER |=  UTILS_BIT_SHIFT(pin * 2, 0x01);
 8001d24:	687b      	ldr	r3, [r7, #4]
 8001d26:	681b      	ldr	r3, [r3, #0]
 8001d28:	78fa      	ldrb	r2, [r7, #3]
 8001d2a:	0052      	lsls	r2, r2, #1
 8001d2c:	2101      	movs	r1, #1
 8001d2e:	fa01 f202 	lsl.w	r2, r1, r2
 8001d32:	431a      	orrs	r2, r3
 8001d34:	687b      	ldr	r3, [r7, #4]
 8001d36:	601a      	str	r2, [r3, #0]

    // 2. 출력 타입 설정
    gpio->OTYPER &= ~UTILS_BIT_SHIFT(pin, 0x01);
 8001d38:	687b      	ldr	r3, [r7, #4]
 8001d3a:	685b      	ldr	r3, [r3, #4]
 8001d3c:	78fa      	ldrb	r2, [r7, #3]
 8001d3e:	2101      	movs	r1, #1
 8001d40:	fa01 f202 	lsl.w	r2, r1, r2
 8001d44:	43d2      	mvns	r2, r2
 8001d46:	401a      	ands	r2, r3
 8001d48:	687b      	ldr	r3, [r7, #4]
 8001d4a:	605a      	str	r2, [r3, #4]
    gpio->OTYPER |=  UTILS_BIT_SHIFT(pin, outType);
 8001d4c:	687b      	ldr	r3, [r7, #4]
 8001d4e:	685b      	ldr	r3, [r3, #4]
 8001d50:	78b9      	ldrb	r1, [r7, #2]
 8001d52:	78fa      	ldrb	r2, [r7, #3]
 8001d54:	fa01 f202 	lsl.w	r2, r1, r2
 8001d58:	431a      	orrs	r2, r3
 8001d5a:	687b      	ldr	r3, [r7, #4]
 8001d5c:	605a      	str	r2, [r3, #4]

    // 3. 속도 설정
    gpio->OSPEEDR &= ~UTILS_BIT_SHIFT(pin * 2, 0x03);
 8001d5e:	687b      	ldr	r3, [r7, #4]
 8001d60:	689b      	ldr	r3, [r3, #8]
 8001d62:	78fa      	ldrb	r2, [r7, #3]
 8001d64:	0052      	lsls	r2, r2, #1
 8001d66:	2103      	movs	r1, #3
 8001d68:	fa01 f202 	lsl.w	r2, r1, r2
 8001d6c:	43d2      	mvns	r2, r2
 8001d6e:	401a      	ands	r2, r3
 8001d70:	687b      	ldr	r3, [r7, #4]
 8001d72:	609a      	str	r2, [r3, #8]
    gpio->OSPEEDR |=  UTILS_BIT_SHIFT(pin * 2, spdType);
 8001d74:	687b      	ldr	r3, [r7, #4]
 8001d76:	689b      	ldr	r3, [r3, #8]
 8001d78:	7c39      	ldrb	r1, [r7, #16]
 8001d7a:	78fa      	ldrb	r2, [r7, #3]
 8001d7c:	0052      	lsls	r2, r2, #1
 8001d7e:	fa01 f202 	lsl.w	r2, r1, r2
 8001d82:	431a      	orrs	r2, r3
 8001d84:	687b      	ldr	r3, [r7, #4]
 8001d86:	609a      	str	r2, [r3, #8]

    // 4. Pull-up/down 설정
    gpio->PUPDR &= ~UTILS_BIT_SHIFT(pin * 2, 0x03);
 8001d88:	687b      	ldr	r3, [r7, #4]
 8001d8a:	68db      	ldr	r3, [r3, #12]
 8001d8c:	78fa      	ldrb	r2, [r7, #3]
 8001d8e:	0052      	lsls	r2, r2, #1
 8001d90:	2103      	movs	r1, #3
 8001d92:	fa01 f202 	lsl.w	r2, r1, r2
 8001d96:	43d2      	mvns	r2, r2
 8001d98:	401a      	ands	r2, r3
 8001d9a:	687b      	ldr	r3, [r7, #4]
 8001d9c:	60da      	str	r2, [r3, #12]
    gpio->PUPDR |=  UTILS_BIT_SHIFT(pin * 2, pullType);
 8001d9e:	687b      	ldr	r3, [r7, #4]
 8001da0:	68db      	ldr	r3, [r3, #12]
 8001da2:	7879      	ldrb	r1, [r7, #1]
 8001da4:	78fa      	ldrb	r2, [r7, #3]
 8001da6:	0052      	lsls	r2, r2, #1
 8001da8:	fa01 f202 	lsl.w	r2, r1, r2
 8001dac:	431a      	orrs	r2, r3
 8001dae:	687b      	ldr	r3, [r7, #4]
 8001db0:	60da      	str	r2, [r3, #12]
}
 8001db2:	bf00      	nop
 8001db4:	370c      	adds	r7, #12
 8001db6:	46bd      	mov	sp, r7
 8001db8:	f85d 7b04 	ldr.w	r7, [sp], #4
 8001dbc:	4770      	bx	lr

08001dbe <gpio_set_input>:

void gpio_set_input(GPIO_TypeDef* gpio, uint8_t pin, typGPIO_pull pullType)
{
 8001dbe:	b480      	push	{r7}
 8001dc0:	b083      	sub	sp, #12
 8001dc2:	af00      	add	r7, sp, #0
 8001dc4:	6078      	str	r0, [r7, #4]
 8001dc6:	460b      	mov	r3, r1
 8001dc8:	70fb      	strb	r3, [r7, #3]
 8001dca:	4613      	mov	r3, r2
 8001dcc:	70bb      	strb	r3, [r7, #2]
    // Mode: 00 (Input)
    gpio->MODER &= ~UTILS_BIT_SHIFT(pin * 2, 0x03); 
 8001dce:	687b      	ldr	r3, [r7, #4]
 8001dd0:	681b      	ldr	r3, [r3, #0]
 8001dd2:	78fa      	ldrb	r2, [r7, #3]
 8001dd4:	0052      	lsls	r2, r2, #1
 8001dd6:	2103      	movs	r1, #3
 8001dd8:	fa01 f202 	lsl.w	r2, r1, r2
 8001ddc:	43d2      	mvns	r2, r2
 8001dde:	401a      	ands	r2, r3
 8001de0:	687b      	ldr	r3, [r7, #4]
 8001de2:	601a      	str	r2, [r3, #0]
    
    // Pull 설정
    gpio->PUPDR &= ~UTILS_BIT_SHIFT(pin * 2, 0x03);
 8001de4:	687b      	ldr	r3, [r7, #4]
 8001de6:	68db      	ldr	r3, [r3, #12]
 8001de8:	78fa      	ldrb	r2, [r7, #3]
 8001dea:	0052      	lsls	r2, r2, #1
 8001dec:	2103      	movs	r1, #3
 8001dee:	fa01 f202 	lsl.w	r2, r1, r2
 8001df2:	43d2      	mvns	r2, r2
 8001df4:	401a      	ands	r2, r3
 8001df6:	687b      	ldr	r3, [r7, #4]
 8001df8:	60da      	str	r2, [r3, #12]
    gpio->PUPDR |=  UTILS_BIT_SHIFT(pin * 2, pullType);
 8001dfa:	687b      	ldr	r3, [r7, #4]
 8001dfc:	68db      	ldr	r3, [r3, #12]
 8001dfe:	78b9      	ldrb	r1, [r7, #2]
 8001e00:	78fa      	ldrb	r2, [r7, #3]
 8001e02:	0052      	lsls	r2, r2, #1
 8001e04:	fa01 f202 	lsl.w	r2, r1, r2
 8001e08:	431a      	orrs	r2, r3
 8001e0a:	687b      	ldr	r3, [r7, #4]
 8001e0c:	60da      	str	r2, [r3, #12]
}
 8001e0e:	bf00      	nop
 8001e10:	370c      	adds	r7, #12
 8001e12:	46bd      	mov	sp, r7
 8001e14:	f85d 7b04 	ldr.w	r7, [sp], #4
 8001e18:	4770      	bx	lr

08001e1a <gpio_set_analog>:

// 아날로그 모드 전용: 모든 디지털 회로가 꺼지므로 Pull 설정도 보통 NONE
void gpio_set_analog(GPIO_TypeDef* gpio, uint8_t pin)
{
 8001e1a:	b480      	push	{r7}
 8001e1c:	b083      	sub	sp, #12
 8001e1e:	af00      	add	r7, sp, #0
 8001e20:	6078      	str	r0, [r7, #4]
 8001e22:	460b      	mov	r3, r1
 8001e24:	70fb      	strb	r3, [r7, #3]
    // Mode: 11 (Analog)
    gpio->MODER &= ~UTILS_BIT_SHIFT(pin * 2, 0x03);
 8001e26:	687b      	ldr	r3, [r7, #4]
 8001e28:	681b      	ldr	r3, [r3, #0]
 8001e2a:	78fa      	ldrb	r2, [r7, #3]
 8001e2c:	0052      	lsls	r2, r2, #1
 8001e2e:	2103      	movs	r1, #3
 8001e30:	fa01 f202 	lsl.w	r2, r1, r2
 8001e34:	43d2      	mvns	r2, r2
 8001e36:	401a      	ands	r2, r3
 8001e38:	687b      	ldr	r3, [r7, #4]
 8001e3a:	601a      	str	r2, [r3, #0]
    gpio->MODER |= UTILS_BIT_SHIFT(pin * 2, 0x03);
 8001e3c:	687b      	ldr	r3, [r7, #4]
 8001e3e:	681b      	ldr	r3, [r3, #0]
 8001e40:	78fa      	ldrb	r2, [r7, #3]
 8001e42:	0052      	lsls	r2, r2, #1
 8001e44:	2103      	movs	r1, #3
 8001e46:	fa01 f202 	lsl.w	r2, r1, r2
 8001e4a:	431a      	orrs	r2, r3
 8001e4c:	687b      	ldr	r3, [r7, #4]
 8001e4e:	601a      	str	r2, [r3, #0]
    
    // Pull: 00 (Floating)
    gpio->PUPDR &= ~UTILS_BIT_SHIFT(pin * 2, 0x03);
 8001e50:	687b      	ldr	r3, [r7, #4]
 8001e52:	68db      	ldr	r3, [r3, #12]
 8001e54:	78fa      	ldrb	r2, [r7, #3]
 8001e56:	0052      	lsls	r2, r2, #1
 8001e58:	2103      	movs	r1, #3
 8001e5a:	fa01 f202 	lsl.w	r2, r1, r2
 8001e5e:	43d2      	mvns	r2, r2
 8001e60:	401a      	ands	r2, r3
 8001e62:	687b      	ldr	r3, [r7, #4]
 8001e64:	60da      	str	r2, [r3, #12]
}
 8001e66:	bf00      	nop
 8001e68:	370c      	adds	r7, #12
 8001e6a:	46bd      	mov	sp, r7
 8001e6c:	f85d 7b04 	ldr.w	r7, [sp], #4
 8001e70:	4770      	bx	lr

08001e72 <gpio_set_alterFunc>:

void gpio_set_alterFunc(GPIO_TypeDef* gpio, uint8_t pin, uint8_t afNo, typGPIO_spd spdType)
{
 8001e72:	b480      	push	{r7}
 8001e74:	b083      	sub	sp, #12
 8001e76:	af00      	add	r7, sp, #0
 8001e78:	6078      	str	r0, [r7, #4]
 8001e7a:	4608      	mov	r0, r1
 8001e7c:	4611      	mov	r1, r2
 8001e7e:	461a      	mov	r2, r3
 8001e80:	4603      	mov	r3, r0
 8001e82:	70fb      	strb	r3, [r7, #3]
 8001e84:	460b      	mov	r3, r1
 8001e86:	70bb      	strb	r3, [r7, #2]
 8001e88:	4613      	mov	r3, r2
 8001e8a:	707b      	strb	r3, [r7, #1]
    // 1. MODER를 Alternate Function 모드(10)로 설정
    gpio->MODER &= ~UTILS_BIT_SHIFT(pin * 2, 0x03);
 8001e8c:	687b      	ldr	r3, [r7, #4]
 8001e8e:	681b      	ldr	r3, [r3, #0]
 8001e90:	78fa      	ldrb	r2, [r7, #3]
 8001e92:	0052      	lsls	r2, r2, #1
 8001e94:	2103      	movs	r1, #3
 8001e96:	fa01 f202 	lsl.w	r2, r1, r2
 8001e9a:	43d2      	mvns	r2, r2
 8001e9c:	401a      	ands	r2, r3
 8001e9e:	687b      	ldr	r3, [r7, #4]
 8001ea0:	601a      	str	r2, [r3, #0]
    gpio->MODER |=  UTILS_BIT_SHIFT(pin * 2, 0x02);
 8001ea2:	687b      	ldr	r3, [r7, #4]
 8001ea4:	681b      	ldr	r3, [r3, #0]
 8001ea6:	78fa      	ldrb	r2, [r7, #3]
 8001ea8:	0052      	lsls	r2, r2, #1
 8001eaa:	2102      	movs	r1, #2
 8001eac:	fa01 f202 	lsl.w	r2, r1, r2
 8001eb0:	431a      	orrs	r2, r3
 8001eb2:	687b      	ldr	r3, [r7, #4]
 8001eb4:	601a      	str	r2, [r3, #0]
    
    // 2. AFR 레지스터 설정
    // pin / 8 은 인덱스(0 또는 1), pin % 8 은 해당 레지스터 내 위치
    // pin & 0x07 (=pin % 8) 은 두 레지스터에서 어떤 레지스터에 값을 쓸지를 정함
    // * 4 는 한칸이 4비트임
    gpio->AFR[pin >> 3] &= ~UTILS_BIT_SHIFT((pin & 0x07) * 4, 0x0F);
 8001eb6:	78fb      	ldrb	r3, [r7, #3]
 8001eb8:	08db      	lsrs	r3, r3, #3
 8001eba:	b2db      	uxtb	r3, r3
 8001ebc:	461a      	mov	r2, r3
 8001ebe:	687b      	ldr	r3, [r7, #4]
 8001ec0:	3208      	adds	r2, #8
 8001ec2:	f853 3022 	ldr.w	r3, [r3, r2, lsl #2]
 8001ec6:	78fa      	ldrb	r2, [r7, #3]
 8001ec8:	f002 0207 	and.w	r2, r2, #7
 8001ecc:	0092      	lsls	r2, r2, #2
 8001ece:	210f      	movs	r1, #15
 8001ed0:	fa01 f202 	lsl.w	r2, r1, r2
 8001ed4:	43d2      	mvns	r2, r2
 8001ed6:	4611      	mov	r1, r2
 8001ed8:	78fa      	ldrb	r2, [r7, #3]
 8001eda:	08d2      	lsrs	r2, r2, #3
 8001edc:	b2d2      	uxtb	r2, r2
 8001ede:	4019      	ands	r1, r3
 8001ee0:	687b      	ldr	r3, [r7, #4]
 8001ee2:	3208      	adds	r2, #8
 8001ee4:	f843 1022 	str.w	r1, [r3, r2, lsl #2]
    gpio->AFR[pin >> 3] |= UTILS_BIT_SHIFT((pin & 0x07) * 4,afNo);
 8001ee8:	78fb      	ldrb	r3, [r7, #3]
 8001eea:	08db      	lsrs	r3, r3, #3
 8001eec:	b2db      	uxtb	r3, r3
 8001eee:	461a      	mov	r2, r3
 8001ef0:	687b      	ldr	r3, [r7, #4]
 8001ef2:	3208      	adds	r2, #8
 8001ef4:	f853 3022 	ldr.w	r3, [r3, r2, lsl #2]
 8001ef8:	78b9      	ldrb	r1, [r7, #2]
 8001efa:	78fa      	ldrb	r2, [r7, #3]
 8001efc:	f002 0207 	and.w	r2, r2, #7
 8001f00:	0092      	lsls	r2, r2, #2
 8001f02:	fa01 f202 	lsl.w	r2, r1, r2
 8001f06:	4611      	mov	r1, r2
 8001f08:	78fa      	ldrb	r2, [r7, #3]
 8001f0a:	08d2      	lsrs	r2, r2, #3
 8001f0c:	b2d2      	uxtb	r2, r2
 8001f0e:	4319      	orrs	r1, r3
 8001f10:	687b      	ldr	r3, [r7, #4]
 8001f12:	3208      	adds	r2, #8
 8001f14:	f843 1022 	str.w	r1, [r3, r2, lsl #2]

    // 3. 스피드 설정
    gpio->OSPEEDR &= ~UTILS_BIT_SHIFT(pin * 2, 0x03);
 8001f18:	687b      	ldr	r3, [r7, #4]
 8001f1a:	689b      	ldr	r3, [r3, #8]
 8001f1c:	78fa      	ldrb	r2, [r7, #3]
 8001f1e:	0052      	lsls	r2, r2, #1
 8001f20:	2103      	movs	r1, #3
 8001f22:	fa01 f202 	lsl.w	r2, r1, r2
 8001f26:	43d2      	mvns	r2, r2
 8001f28:	401a      	ands	r2, r3
 8001f2a:	687b      	ldr	r3, [r7, #4]
 8001f2c:	609a      	str	r2, [r3, #8]
    gpio->OSPEEDR |=  UTILS_BIT_SHIFT(pin * 2, spdType);
 8001f2e:	687b      	ldr	r3, [r7, #4]
 8001f30:	689b      	ldr	r3, [r3, #8]
 8001f32:	7879      	ldrb	r1, [r7, #1]
 8001f34:	78fa      	ldrb	r2, [r7, #3]
 8001f36:	0052      	lsls	r2, r2, #1
 8001f38:	fa01 f202 	lsl.w	r2, r1, r2
 8001f3c:	431a      	orrs	r2, r3
 8001f3e:	687b      	ldr	r3, [r7, #4]
 8001f40:	609a      	str	r2, [r3, #8]
}
 8001f42:	bf00      	nop
 8001f44:	370c      	adds	r7, #12
 8001f46:	46bd      	mov	sp, r7
 8001f48:	f85d 7b04 	ldr.w	r7, [sp], #4
 8001f4c:	4770      	bx	lr

08001f4e <gpio_toggle_pin>:
        gpio->BSRR = UTILS_BIT_SHIFT(pin, 1);
    }
}

void gpio_toggle_pin(GPIO_TypeDef* gpio, uint8_t pin)
{
 8001f4e:	b480      	push	{r7}
 8001f50:	b083      	sub	sp, #12
 8001f52:	af00      	add	r7, sp, #0
 8001f54:	6078      	str	r0, [r7, #4]
 8001f56:	460b      	mov	r3, r1
 8001f58:	70fb      	strb	r3, [r7, #3]
    gpio->ODR ^= UTILS_BIT_SHIFT(pin,1);
 8001f5a:	687b      	ldr	r3, [r7, #4]
 8001f5c:	695b      	ldr	r3, [r3, #20]
 8001f5e:	78fa      	ldrb	r2, [r7, #3]
 8001f60:	2101      	movs	r1, #1
 8001f62:	fa01 f202 	lsl.w	r2, r1, r2
 8001f66:	405a      	eors	r2, r3
 8001f68:	687b      	ldr	r3, [r7, #4]
 8001f6a:	615a      	str	r2, [r3, #20]
}
 8001f6c:	bf00      	nop
 8001f6e:	370c      	adds	r7, #12
 8001f70:	46bd      	mov	sp, r7
 8001f72:	f85d 7b04 	ldr.w	r7, [sp], #4
 8001f76:	4770      	bx	lr

08001f78 <gpio_read_pin>:

inline uint8_t gpio_read_pin(GPIO_TypeDef* gpio, uint8_t pin)
{
 8001f78:	b480      	push	{r7}
 8001f7a:	b083      	sub	sp, #12
 8001f7c:	af00      	add	r7, sp, #0
 8001f7e:	6078      	str	r0, [r7, #4]
 8001f80:	460b      	mov	r3, r1
 8001f82:	70fb      	strb	r3, [r7, #3]
    return (uint8_t)((gpio->IDR & UTILS_BIT_SHIFT(pin, 1)) ? 1 : 0);
 8001f84:	687b      	ldr	r3, [r7, #4]
 8001f86:	691b      	ldr	r3, [r3, #16]
 8001f88:	78fa      	ldrb	r2, [r7, #3]
 8001f8a:	2101      	movs	r1, #1
 8001f8c:	fa01 f202 	lsl.w	r2, r1, r2
 8001f90:	4013      	ands	r3, r2
 8001f92:	2b00      	cmp	r3, #0
 8001f94:	d001      	beq.n	8001f9a <gpio_read_pin+0x22>
 8001f96:	2301      	movs	r3, #1
 8001f98:	e000      	b.n	8001f9c <gpio_read_pin+0x24>
 8001f9a:	2300      	movs	r3, #0
}
 8001f9c:	4618      	mov	r0, r3
 8001f9e:	370c      	adds	r7, #12
 8001fa0:	46bd      	mov	sp, r7
 8001fa2:	f85d 7b04 	ldr.w	r7, [sp], #4
 8001fa6:	4770      	bx	lr

08001fa8 <gpio_init>:

void gpio_init(void)
{
 8001fa8:	b580      	push	{r7, lr}
 8001faa:	b082      	sub	sp, #8
 8001fac:	af02      	add	r7, sp, #8
    gpio_set_output(GPIOC, 6, GPIO_OTYPE_PP, GPIO_PULL_UP, GPIO_SPD_LOW);
 8001fae:	2300      	movs	r3, #0
 8001fb0:	9300      	str	r3, [sp, #0]
 8001fb2:	2301      	movs	r3, #1
 8001fb4:	2200      	movs	r2, #0
 8001fb6:	2106      	movs	r1, #6
 8001fb8:	4802      	ldr	r0, [pc, #8]	@ (8001fc4 <gpio_init+0x1c>)
 8001fba:	f7ff fe9b 	bl	8001cf4 <gpio_set_output>
 8001fbe:	bf00      	nop
 8001fc0:	46bd      	mov	sp, r7
 8001fc2:	bd80      	pop	{r7, pc}
 8001fc4:	40020800 	.word	0x40020800

08001fc8 <adc_offsetCalib>:
                              (ADC_SAMPLE_15CYC << 18) | (ADC_SAMPLE_15CYC << 21) )

typAdc_handle vAdc_handler[ADC_MODULE_NUM];

void adc_offsetCalib(void)
{
 8001fc8:	b580      	push	{r7, lr}
 8001fca:	b086      	sub	sp, #24
 8001fcc:	af00      	add	r7, sp, #0
    uint32_t ius_sum = 0, ivs_sum = 0, iws_sum = 0;
 8001fce:	2300      	movs	r3, #0
 8001fd0:	617b      	str	r3, [r7, #20]
 8001fd2:	2300      	movs	r3, #0
 8001fd4:	613b      	str	r3, [r7, #16]
 8001fd6:	2300      	movs	r3, #0
 8001fd8:	60fb      	str	r3, [r7, #12]

    for(int i = 0; i < ADC_OFFSET_SMPLE_CNT; i++)
 8001fda:	2300      	movs	r3, #0
 8001fdc:	60bb      	str	r3, [r7, #8]
 8001fde:	e017      	b.n	8002010 <adc_offsetCalib+0x48>
    {
        // 각 채널을 순차적으로 Polling 변환하여 10번 합산
        ius_sum += adc_conv_rawIus_polling();
 8001fe0:	f000 f9f2 	bl	80023c8 <adc_conv_rawIus_polling>
 8001fe4:	4603      	mov	r3, r0
 8001fe6:	461a      	mov	r2, r3
 8001fe8:	697b      	ldr	r3, [r7, #20]
 8001fea:	4413      	add	r3, r2
 8001fec:	617b      	str	r3, [r7, #20]
        ivs_sum += adc_conv_rawIvs_polling();
 8001fee:	f000 fa1b 	bl	8002428 <adc_conv_rawIvs_polling>
 8001ff2:	4603      	mov	r3, r0
 8001ff4:	461a      	mov	r2, r3
 8001ff6:	693b      	ldr	r3, [r7, #16]
 8001ff8:	4413      	add	r3, r2
 8001ffa:	613b      	str	r3, [r7, #16]
        iws_sum += adc_conv_rawIws_polling();
 8001ffc:	f000 fa46 	bl	800248c <adc_conv_rawIws_polling>
 8002000:	4603      	mov	r3, r0
 8002002:	461a      	mov	r2, r3
 8002004:	68fb      	ldr	r3, [r7, #12]
 8002006:	4413      	add	r3, r2
 8002008:	60fb      	str	r3, [r7, #12]
    for(int i = 0; i < ADC_OFFSET_SMPLE_CNT; i++)
 800200a:	68bb      	ldr	r3, [r7, #8]
 800200c:	3301      	adds	r3, #1
 800200e:	60bb      	str	r3, [r7, #8]
 8002010:	68bb      	ldr	r3, [r7, #8]
 8002012:	2b09      	cmp	r3, #9
 8002014:	d9e4      	bls.n	8001fe0 <adc_offsetCalib+0x18>
    }

    // 평균값 계산 및 핸들러 저장 (나중에 adc_get_current_A에서 사용)
    vAdc_handler[ADC_HANDLER_U_CH_IDX].offset_rawVal = (uint16_t)(ius_sum / ADC_OFFSET_SMPLE_CNT);
 8002016:	697b      	ldr	r3, [r7, #20]
 8002018:	4a29      	ldr	r2, [pc, #164]	@ (80020c0 <adc_offsetCalib+0xf8>)
 800201a:	fba2 2303 	umull	r2, r3, r2, r3
 800201e:	08db      	lsrs	r3, r3, #3
 8002020:	b29a      	uxth	r2, r3
 8002022:	4b28      	ldr	r3, [pc, #160]	@ (80020c4 <adc_offsetCalib+0xfc>)
 8002024:	811a      	strh	r2, [r3, #8]
    vAdc_handler[ADC_HANDLER_V_CH_IDX].offset_rawVal = (uint16_t)(ivs_sum / ADC_OFFSET_SMPLE_CNT);
 8002026:	693b      	ldr	r3, [r7, #16]
 8002028:	4a25      	ldr	r2, [pc, #148]	@ (80020c0 <adc_offsetCalib+0xf8>)
 800202a:	fba2 2303 	umull	r2, r3, r2, r3
 800202e:	08db      	lsrs	r3, r3, #3
 8002030:	b29a      	uxth	r2, r3
 8002032:	4b24      	ldr	r3, [pc, #144]	@ (80020c4 <adc_offsetCalib+0xfc>)
 8002034:	829a      	strh	r2, [r3, #20]
    vAdc_handler[ADC_HANDLER_W_CH_IDX].offset_rawVal = (uint16_t)(iws_sum / ADC_OFFSET_SMPLE_CNT);
 8002036:	68fb      	ldr	r3, [r7, #12]
 8002038:	4a21      	ldr	r2, [pc, #132]	@ (80020c0 <adc_offsetCalib+0xf8>)
 800203a:	fba2 2303 	umull	r2, r3, r2, r3
 800203e:	08db      	lsrs	r3, r3, #3
 8002040:	b29a      	uxth	r2, r3
 8002042:	4b20      	ldr	r3, [pc, #128]	@ (80020c4 <adc_offsetCalib+0xfc>)
 8002044:	841a      	strh	r2, [r3, #32]

    for(int i = 0; i < ADC_MODULE_NUM; i++)
 8002046:	2300      	movs	r3, #0
 8002048:	607b      	str	r3, [r7, #4]
 800204a:	e030      	b.n	80020ae <adc_offsetCalib+0xe6>
    {
        // 회로 구조상 영점(1.65V)보다 아래로 오차가 생기는 건 비정상적이지만 무시할 수준이라 보고, 그냥 정상 영점인 2048로 취급
        if(vAdc_handler[i].offset_rawVal <= ADC_12BIT_HALF_RESOLUTION)
 800204c:	491d      	ldr	r1, [pc, #116]	@ (80020c4 <adc_offsetCalib+0xfc>)
 800204e:	687a      	ldr	r2, [r7, #4]
 8002050:	4613      	mov	r3, r2
 8002052:	005b      	lsls	r3, r3, #1
 8002054:	4413      	add	r3, r2
 8002056:	009b      	lsls	r3, r3, #2
 8002058:	440b      	add	r3, r1
 800205a:	3308      	adds	r3, #8
 800205c:	881b      	ldrh	r3, [r3, #0]
 800205e:	f5b3 6f00 	cmp.w	r3, #2048	@ 0x800
 8002062:	d80b      	bhi.n	800207c <adc_offsetCalib+0xb4>
        {
            vAdc_handler[i].offset_rawVal = ADC_12BIT_HALF_RESOLUTION;
 8002064:	4917      	ldr	r1, [pc, #92]	@ (80020c4 <adc_offsetCalib+0xfc>)
 8002066:	687a      	ldr	r2, [r7, #4]
 8002068:	4613      	mov	r3, r2
 800206a:	005b      	lsls	r3, r3, #1
 800206c:	4413      	add	r3, r2
 800206e:	009b      	lsls	r3, r3, #2
 8002070:	440b      	add	r3, r1
 8002072:	3308      	adds	r3, #8
 8002074:	f44f 6200 	mov.w	r2, #2048	@ 0x800
 8002078:	801a      	strh	r2, [r3, #0]
 800207a:	e015      	b.n	80020a8 <adc_offsetCalib+0xe0>
        }
        else
        {
            vAdc_handler[i].offset_rawVal = vAdc_handler[i].offset_rawVal - ADC_12BIT_HALF_RESOLUTION;
 800207c:	4911      	ldr	r1, [pc, #68]	@ (80020c4 <adc_offsetCalib+0xfc>)
 800207e:	687a      	ldr	r2, [r7, #4]
 8002080:	4613      	mov	r3, r2
 8002082:	005b      	lsls	r3, r3, #1
 8002084:	4413      	add	r3, r2
 8002086:	009b      	lsls	r3, r3, #2
 8002088:	440b      	add	r3, r1
 800208a:	3308      	adds	r3, #8
 800208c:	881b      	ldrh	r3, [r3, #0]
 800208e:	f5a3 6300 	sub.w	r3, r3, #2048	@ 0x800
 8002092:	b298      	uxth	r0, r3
 8002094:	490b      	ldr	r1, [pc, #44]	@ (80020c4 <adc_offsetCalib+0xfc>)
 8002096:	687a      	ldr	r2, [r7, #4]
 8002098:	4613      	mov	r3, r2
 800209a:	005b      	lsls	r3, r3, #1
 800209c:	4413      	add	r3, r2
 800209e:	009b      	lsls	r3, r3, #2
 80020a0:	440b      	add	r3, r1
 80020a2:	3308      	adds	r3, #8
 80020a4:	4602      	mov	r2, r0
 80020a6:	801a      	strh	r2, [r3, #0]
    for(int i = 0; i < ADC_MODULE_NUM; i++)
 80020a8:	687b      	ldr	r3, [r7, #4]
 80020aa:	3301      	adds	r3, #1
 80020ac:	607b      	str	r3, [r7, #4]
 80020ae:	687b      	ldr	r3, [r7, #4]
 80020b0:	2b02      	cmp	r3, #2
 80020b2:	d9cb      	bls.n	800204c <adc_offsetCalib+0x84>
        }
    }
}
 80020b4:	bf00      	nop
 80020b6:	bf00      	nop
 80020b8:	3718      	adds	r7, #24
 80020ba:	46bd      	mov	sp, r7
 80020bc:	bd80      	pop	{r7, pc}
 80020be:	bf00      	nop
 80020c0:	cccccccd 	.word	0xcccccccd
 80020c4:	20000248 	.word	0x20000248

080020c8 <adc_getOffsetCalib_val>:

void adc_getOffsetCalib_val(uint32_t currOffsets[])
{
 80020c8:	b480      	push	{r7}
 80020ca:	b085      	sub	sp, #20
 80020cc:	af00      	add	r7, sp, #0
 80020ce:	6078      	str	r0, [r7, #4]
    for(int i = 0; i < ADC_MODULE_NUM; i++)
 80020d0:	2300      	movs	r3, #0
 80020d2:	60fb      	str	r3, [r7, #12]
 80020d4:	e011      	b.n	80020fa <adc_getOffsetCalib_val+0x32>
    {
        currOffsets[i] = vAdc_handler[i].offset_rawVal;
 80020d6:	490e      	ldr	r1, [pc, #56]	@ (8002110 <adc_getOffsetCalib_val+0x48>)
 80020d8:	68fa      	ldr	r2, [r7, #12]
 80020da:	4613      	mov	r3, r2
 80020dc:	005b      	lsls	r3, r3, #1
 80020de:	4413      	add	r3, r2
 80020e0:	009b      	lsls	r3, r3, #2
 80020e2:	440b      	add	r3, r1
 80020e4:	3308      	adds	r3, #8
 80020e6:	8819      	ldrh	r1, [r3, #0]
 80020e8:	68fb      	ldr	r3, [r7, #12]
 80020ea:	009b      	lsls	r3, r3, #2
 80020ec:	687a      	ldr	r2, [r7, #4]
 80020ee:	4413      	add	r3, r2
 80020f0:	460a      	mov	r2, r1
 80020f2:	601a      	str	r2, [r3, #0]
    for(int i = 0; i < ADC_MODULE_NUM; i++)
 80020f4:	68fb      	ldr	r3, [r7, #12]
 80020f6:	3301      	adds	r3, #1
 80020f8:	60fb      	str	r3, [r7, #12]
 80020fa:	68fb      	ldr	r3, [r7, #12]
 80020fc:	2b02      	cmp	r3, #2
 80020fe:	d9ea      	bls.n	80020d6 <adc_getOffsetCalib_val+0xe>
    }
}
 8002100:	bf00      	nop
 8002102:	bf00      	nop
 8002104:	3714      	adds	r7, #20
 8002106:	46bd      	mov	sp, r7
 8002108:	f85d 7b04 	ldr.w	r7, [sp], #4
 800210c:	4770      	bx	lr
 800210e:	bf00      	nop
 8002110:	20000248 	.word	0x20000248

08002114 <adc_init>:

void adc_init(void)
{
 8002114:	b580      	push	{r7, lr}
 8002116:	af00      	add	r7, sp, #0
    // 1. 핀 설정
    vAdc_handler[ADC_HANDLER_U_CH_IDX].inst = ADC1;
 8002118:	4b52      	ldr	r3, [pc, #328]	@ (8002264 <adc_init+0x150>)
 800211a:	4a53      	ldr	r2, [pc, #332]	@ (8002268 <adc_init+0x154>)
 800211c:	601a      	str	r2, [r3, #0]
    vAdc_handler[ADC_HANDLER_V_CH_IDX].inst = ADC2;
 800211e:	4b51      	ldr	r3, [pc, #324]	@ (8002264 <adc_init+0x150>)
 8002120:	4a52      	ldr	r2, [pc, #328]	@ (800226c <adc_init+0x158>)
 8002122:	60da      	str	r2, [r3, #12]
    vAdc_handler[ADC_HANDLER_W_CH_IDX].inst = ADC3;
 8002124:	4b4f      	ldr	r3, [pc, #316]	@ (8002264 <adc_init+0x150>)
 8002126:	4a52      	ldr	r2, [pc, #328]	@ (8002270 <adc_init+0x15c>)
 8002128:	619a      	str	r2, [r3, #24]

    gpio_set_analog(IAS_ADC_Port, 0);
 800212a:	2100      	movs	r1, #0
 800212c:	4851      	ldr	r0, [pc, #324]	@ (8002274 <adc_init+0x160>)
 800212e:	f7ff fe74 	bl	8001e1a <gpio_set_analog>
    gpio_set_analog(MOSFET_NTC_Port, 6);
 8002132:	2106      	movs	r1, #6
 8002134:	484f      	ldr	r0, [pc, #316]	@ (8002274 <adc_init+0x160>)
 8002136:	f7ff fe70 	bl	8001e1a <gpio_set_analog>
    gpio_set_analog(IBS_ADC_Port, 1);
 800213a:	2101      	movs	r1, #1
 800213c:	484d      	ldr	r0, [pc, #308]	@ (8002274 <adc_init+0x160>)
 800213e:	f7ff fe6c 	bl	8001e1a <gpio_set_analog>
    gpio_set_analog(THROTTLE_Port, 7);
 8002142:	2107      	movs	r1, #7
 8002144:	484b      	ldr	r0, [pc, #300]	@ (8002274 <adc_init+0x160>)
 8002146:	f7ff fe68 	bl	8001e1a <gpio_set_analog>
    gpio_set_analog(ICS_ADC_Port, 2);
 800214a:	2102      	movs	r1, #2
 800214c:	4849      	ldr	r0, [pc, #292]	@ (8002274 <adc_init+0x160>)
 800214e:	f7ff fe64 	bl	8001e1a <gpio_set_analog>
    gpio_set_analog(VDC_ADC_Port, 3);
 8002152:	2103      	movs	r1, #3
 8002154:	4847      	ldr	r0, [pc, #284]	@ (8002274 <adc_init+0x160>)
 8002156:	f7ff fe60 	bl	8001e1a <gpio_set_analog>

    // ADC 페리페럴 설정
    // 온도센서
    ADC->CCR &= ~(ADC_CCR_TSVREFE | ADC_CCR_VBATE | ADC_CCR_ADCPRE_Msk | 
 800215a:	4b47      	ldr	r3, [pc, #284]	@ (8002278 <adc_init+0x164>)
 800215c:	685a      	ldr	r2, [r3, #4]
 800215e:	4946      	ldr	r1, [pc, #280]	@ (8002278 <adc_init+0x164>)
 8002160:	4b46      	ldr	r3, [pc, #280]	@ (800227c <adc_init+0x168>)
 8002162:	4013      	ands	r3, r2
 8002164:	604b      	str	r3, [r1, #4]
        ADC_CCR_DMA_Msk | ADC_CCR_DELAY_Msk | ADC_CCR_MULTI_Msk);
    
    // ADC 모듈 채널별 샘플링 시간 설정 -> cap을 충전하는 시간 (샘플 & 홀드)
    vAdc_handler[ADC_HANDLER_U_CH_IDX].inst->SMPR2 = ADC_SMPR_ALL_15; // 방어적 프로그래밍?
 8002166:	4b3f      	ldr	r3, [pc, #252]	@ (8002264 <adc_init+0x150>)
 8002168:	681b      	ldr	r3, [r3, #0]
 800216a:	4a45      	ldr	r2, [pc, #276]	@ (8002280 <adc_init+0x16c>)
 800216c:	611a      	str	r2, [r3, #16]
    vAdc_handler[ADC_HANDLER_V_CH_IDX].inst->SMPR2 = ADC_SMPR_ALL_15;
 800216e:	4b3d      	ldr	r3, [pc, #244]	@ (8002264 <adc_init+0x150>)
 8002170:	68db      	ldr	r3, [r3, #12]
 8002172:	4a43      	ldr	r2, [pc, #268]	@ (8002280 <adc_init+0x16c>)
 8002174:	611a      	str	r2, [r3, #16]
    vAdc_handler[ADC_HANDLER_W_CH_IDX].inst->SMPR2 = ADC_SMPR_ALL_15;
 8002176:	4b3b      	ldr	r3, [pc, #236]	@ (8002264 <adc_init+0x150>)
 8002178:	699b      	ldr	r3, [r3, #24]
 800217a:	4a41      	ldr	r2, [pc, #260]	@ (8002280 <adc_init+0x16c>)
 800217c:	611a      	str	r2, [r3, #16]

    // ADC 모듈 상태 설정 (초기상태)
    vAdc_handler[ADC_HANDLER_U_CH_IDX].inst->CR1 = 0;    vAdc_handler[ADC_HANDLER_U_CH_IDX].inst->CR2 = 0;
 800217e:	4b39      	ldr	r3, [pc, #228]	@ (8002264 <adc_init+0x150>)
 8002180:	681b      	ldr	r3, [r3, #0]
 8002182:	2200      	movs	r2, #0
 8002184:	605a      	str	r2, [r3, #4]
 8002186:	4b37      	ldr	r3, [pc, #220]	@ (8002264 <adc_init+0x150>)
 8002188:	681b      	ldr	r3, [r3, #0]
 800218a:	2200      	movs	r2, #0
 800218c:	609a      	str	r2, [r3, #8]
    vAdc_handler[ADC_HANDLER_U_CH_IDX].inst->SQR1 = 0;   vAdc_handler[ADC_HANDLER_U_CH_IDX].inst->SQR2 = 0;
 800218e:	4b35      	ldr	r3, [pc, #212]	@ (8002264 <adc_init+0x150>)
 8002190:	681b      	ldr	r3, [r3, #0]
 8002192:	2200      	movs	r2, #0
 8002194:	62da      	str	r2, [r3, #44]	@ 0x2c
 8002196:	4b33      	ldr	r3, [pc, #204]	@ (8002264 <adc_init+0x150>)
 8002198:	681b      	ldr	r3, [r3, #0]
 800219a:	2200      	movs	r2, #0
 800219c:	631a      	str	r2, [r3, #48]	@ 0x30
    vAdc_handler[ADC_HANDLER_U_CH_IDX].inst->SQR3 = 0;
 800219e:	4b31      	ldr	r3, [pc, #196]	@ (8002264 <adc_init+0x150>)
 80021a0:	681b      	ldr	r3, [r3, #0]
 80021a2:	2200      	movs	r2, #0
 80021a4:	635a      	str	r2, [r3, #52]	@ 0x34

    vAdc_handler[ADC_HANDLER_V_CH_IDX].inst->CR1 = 0;    vAdc_handler[ADC_HANDLER_V_CH_IDX].inst->CR2 = 0;
 80021a6:	4b2f      	ldr	r3, [pc, #188]	@ (8002264 <adc_init+0x150>)
 80021a8:	68db      	ldr	r3, [r3, #12]
 80021aa:	2200      	movs	r2, #0
 80021ac:	605a      	str	r2, [r3, #4]
 80021ae:	4b2d      	ldr	r3, [pc, #180]	@ (8002264 <adc_init+0x150>)
 80021b0:	68db      	ldr	r3, [r3, #12]
 80021b2:	2200      	movs	r2, #0
 80021b4:	609a      	str	r2, [r3, #8]
    vAdc_handler[ADC_HANDLER_V_CH_IDX].inst->SQR1 = 0;   vAdc_handler[ADC_HANDLER_V_CH_IDX].inst->SQR2 = 0;
 80021b6:	4b2b      	ldr	r3, [pc, #172]	@ (8002264 <adc_init+0x150>)
 80021b8:	68db      	ldr	r3, [r3, #12]
 80021ba:	2200      	movs	r2, #0
 80021bc:	62da      	str	r2, [r3, #44]	@ 0x2c
 80021be:	4b29      	ldr	r3, [pc, #164]	@ (8002264 <adc_init+0x150>)
 80021c0:	68db      	ldr	r3, [r3, #12]
 80021c2:	2200      	movs	r2, #0
 80021c4:	631a      	str	r2, [r3, #48]	@ 0x30
    vAdc_handler[ADC_HANDLER_V_CH_IDX].inst->SQR3 = 0;
 80021c6:	4b27      	ldr	r3, [pc, #156]	@ (8002264 <adc_init+0x150>)
 80021c8:	68db      	ldr	r3, [r3, #12]
 80021ca:	2200      	movs	r2, #0
 80021cc:	635a      	str	r2, [r3, #52]	@ 0x34

    vAdc_handler[ADC_HANDLER_W_CH_IDX].inst->CR1 = 0;    vAdc_handler[ADC_HANDLER_W_CH_IDX].inst->CR2 = 0;
 80021ce:	4b25      	ldr	r3, [pc, #148]	@ (8002264 <adc_init+0x150>)
 80021d0:	699b      	ldr	r3, [r3, #24]
 80021d2:	2200      	movs	r2, #0
 80021d4:	605a      	str	r2, [r3, #4]
 80021d6:	4b23      	ldr	r3, [pc, #140]	@ (8002264 <adc_init+0x150>)
 80021d8:	699b      	ldr	r3, [r3, #24]
 80021da:	2200      	movs	r2, #0
 80021dc:	609a      	str	r2, [r3, #8]
    vAdc_handler[ADC_HANDLER_W_CH_IDX].inst->SQR1 = 0;   vAdc_handler[ADC_HANDLER_W_CH_IDX].inst->SQR2 = 0;
 80021de:	4b21      	ldr	r3, [pc, #132]	@ (8002264 <adc_init+0x150>)
 80021e0:	699b      	ldr	r3, [r3, #24]
 80021e2:	2200      	movs	r2, #0
 80021e4:	62da      	str	r2, [r3, #44]	@ 0x2c
 80021e6:	4b1f      	ldr	r3, [pc, #124]	@ (8002264 <adc_init+0x150>)
 80021e8:	699b      	ldr	r3, [r3, #24]
 80021ea:	2200      	movs	r2, #0
 80021ec:	631a      	str	r2, [r3, #48]	@ 0x30
    vAdc_handler[ADC_HANDLER_W_CH_IDX].inst->SQR3 = 0;
 80021ee:	4b1d      	ldr	r3, [pc, #116]	@ (8002264 <adc_init+0x150>)
 80021f0:	699b      	ldr	r3, [r3, #24]
 80021f2:	2200      	movs	r2, #0
 80021f4:	635a      	str	r2, [r3, #52]	@ 0x34

    // ADC ON
    ADC1->CR2 |= ADC_CR2_ADON;
 80021f6:	4b1c      	ldr	r3, [pc, #112]	@ (8002268 <adc_init+0x154>)
 80021f8:	689b      	ldr	r3, [r3, #8]
 80021fa:	4a1b      	ldr	r2, [pc, #108]	@ (8002268 <adc_init+0x154>)
 80021fc:	f043 0301 	orr.w	r3, r3, #1
 8002200:	6093      	str	r3, [r2, #8]
    ADC2->CR2 |= ADC_CR2_ADON;
 8002202:	4b1a      	ldr	r3, [pc, #104]	@ (800226c <adc_init+0x158>)
 8002204:	689b      	ldr	r3, [r3, #8]
 8002206:	4a19      	ldr	r2, [pc, #100]	@ (800226c <adc_init+0x158>)
 8002208:	f043 0301 	orr.w	r3, r3, #1
 800220c:	6093      	str	r3, [r2, #8]
    ADC3->CR2 |= ADC_CR2_ADON;
 800220e:	4b18      	ldr	r3, [pc, #96]	@ (8002270 <adc_init+0x15c>)
 8002210:	689b      	ldr	r3, [r3, #8]
 8002212:	4a17      	ldr	r2, [pc, #92]	@ (8002270 <adc_init+0x15c>)
 8002214:	f043 0301 	orr.w	r3, r3, #1
 8002218:	6093      	str	r3, [r2, #8]

    // 초기화 완료 플래그 설정
    vAdc_handler[ADC_HANDLER_U_CH_IDX].is_initialized = ((ADC1->CR2 & ADC_CR2_ADON) == ADC_CR2_ADON);
 800221a:	4b13      	ldr	r3, [pc, #76]	@ (8002268 <adc_init+0x154>)
 800221c:	689b      	ldr	r3, [r3, #8]
 800221e:	f003 0301 	and.w	r3, r3, #1
 8002222:	2b01      	cmp	r3, #1
 8002224:	bf0c      	ite	eq
 8002226:	2301      	moveq	r3, #1
 8002228:	2300      	movne	r3, #0
 800222a:	b2da      	uxtb	r2, r3
 800222c:	4b0d      	ldr	r3, [pc, #52]	@ (8002264 <adc_init+0x150>)
 800222e:	729a      	strb	r2, [r3, #10]
    vAdc_handler[ADC_HANDLER_V_CH_IDX].is_initialized = ((ADC2->CR2 & ADC_CR2_ADON) == ADC_CR2_ADON);
 8002230:	4b0e      	ldr	r3, [pc, #56]	@ (800226c <adc_init+0x158>)
 8002232:	689b      	ldr	r3, [r3, #8]
 8002234:	f003 0301 	and.w	r3, r3, #1
 8002238:	2b01      	cmp	r3, #1
 800223a:	bf0c      	ite	eq
 800223c:	2301      	moveq	r3, #1
 800223e:	2300      	movne	r3, #0
 8002240:	b2da      	uxtb	r2, r3
 8002242:	4b08      	ldr	r3, [pc, #32]	@ (8002264 <adc_init+0x150>)
 8002244:	759a      	strb	r2, [r3, #22]
    vAdc_handler[ADC_HANDLER_W_CH_IDX].is_initialized = ((ADC3->CR2 & ADC_CR2_ADON) == ADC_CR2_ADON);
 8002246:	4b0a      	ldr	r3, [pc, #40]	@ (8002270 <adc_init+0x15c>)
 8002248:	689b      	ldr	r3, [r3, #8]
 800224a:	f003 0301 	and.w	r3, r3, #1
 800224e:	2b01      	cmp	r3, #1
 8002250:	bf0c      	ite	eq
 8002252:	2301      	moveq	r3, #1
 8002254:	2300      	movne	r3, #0
 8002256:	b2da      	uxtb	r2, r3
 8002258:	4b02      	ldr	r3, [pc, #8]	@ (8002264 <adc_init+0x150>)
 800225a:	f883 2022 	strb.w	r2, [r3, #34]	@ 0x22
}
 800225e:	bf00      	nop
 8002260:	bd80      	pop	{r7, pc}
 8002262:	bf00      	nop
 8002264:	20000248 	.word	0x20000248
 8002268:	40012000 	.word	0x40012000
 800226c:	40012100 	.word	0x40012100
 8002270:	40012200 	.word	0x40012200
 8002274:	40020000 	.word	0x40020000
 8002278:	40012300 	.word	0x40012300
 800227c:	ff3c30e0 	.word	0xff3c30e0
 8002280:	00492492 	.word	0x00492492

08002284 <adc_conv_rawNTC_polling>:

// 보조 ADC 변환 함수들 (polling 방식)
// NOTE : 상전류 측정 함수는 ISR에서 실행되기에, 보조변환 함수의 작업이 취소되는 경우가 발생할 수 있음 -> 크리티컬 섹션

uint16_t adc_conv_rawNTC_polling(void)
{
 8002284:	b480      	push	{r7}
 8002286:	af00      	add	r7, sp, #0
  __ASM volatile ("cpsid i" : : : "memory");
 8002288:	b672      	cpsid	i
}
 800228a:	bf00      	nop
	UTILS_DISABLE_ISR(); // critical section start

    vAdc_handler[ADC_HANDLER_U_CH_IDX].inst->SQR3 &= ~ADC_SQR3_SQ1_Msk;
 800228c:	4b17      	ldr	r3, [pc, #92]	@ (80022ec <adc_conv_rawNTC_polling+0x68>)
 800228e:	681b      	ldr	r3, [r3, #0]
 8002290:	6b5a      	ldr	r2, [r3, #52]	@ 0x34
 8002292:	4b16      	ldr	r3, [pc, #88]	@ (80022ec <adc_conv_rawNTC_polling+0x68>)
 8002294:	681b      	ldr	r3, [r3, #0]
 8002296:	f022 021f 	bic.w	r2, r2, #31
 800229a:	635a      	str	r2, [r3, #52]	@ 0x34
    vAdc_handler[ADC_HANDLER_U_CH_IDX].inst->SQR3 |= UTILS_BIT_SHIFT(0,6); // ADC1_IN6 (NTC)
 800229c:	4b13      	ldr	r3, [pc, #76]	@ (80022ec <adc_conv_rawNTC_polling+0x68>)
 800229e:	681b      	ldr	r3, [r3, #0]
 80022a0:	6b5a      	ldr	r2, [r3, #52]	@ 0x34
 80022a2:	4b12      	ldr	r3, [pc, #72]	@ (80022ec <adc_conv_rawNTC_polling+0x68>)
 80022a4:	681b      	ldr	r3, [r3, #0]
 80022a6:	f042 0206 	orr.w	r2, r2, #6
 80022aa:	635a      	str	r2, [r3, #52]	@ 0x34
    vAdc_handler[ADC_HANDLER_U_CH_IDX].inst->CR2 |= ADC_CR2_SWSTART;
 80022ac:	4b0f      	ldr	r3, [pc, #60]	@ (80022ec <adc_conv_rawNTC_polling+0x68>)
 80022ae:	681b      	ldr	r3, [r3, #0]
 80022b0:	689a      	ldr	r2, [r3, #8]
 80022b2:	4b0e      	ldr	r3, [pc, #56]	@ (80022ec <adc_conv_rawNTC_polling+0x68>)
 80022b4:	681b      	ldr	r3, [r3, #0]
 80022b6:	f042 4280 	orr.w	r2, r2, #1073741824	@ 0x40000000
 80022ba:	609a      	str	r2, [r3, #8]

    while(!(vAdc_handler[ADC_HANDLER_U_CH_IDX].inst->SR & ADC_SR_EOC));
 80022bc:	bf00      	nop
 80022be:	4b0b      	ldr	r3, [pc, #44]	@ (80022ec <adc_conv_rawNTC_polling+0x68>)
 80022c0:	681b      	ldr	r3, [r3, #0]
 80022c2:	681b      	ldr	r3, [r3, #0]
 80022c4:	f003 0302 	and.w	r3, r3, #2
 80022c8:	2b00      	cmp	r3, #0
 80022ca:	d0f8      	beq.n	80022be <adc_conv_rawNTC_polling+0x3a>
    
    vAdc_handler[ADC_HANDLER_U_CH_IDX].aux_rawVal = vAdc_handler[ADC_HANDLER_U_CH_IDX].inst->DR;
 80022cc:	4b07      	ldr	r3, [pc, #28]	@ (80022ec <adc_conv_rawNTC_polling+0x68>)
 80022ce:	681b      	ldr	r3, [r3, #0]
 80022d0:	6cdb      	ldr	r3, [r3, #76]	@ 0x4c
 80022d2:	b29a      	uxth	r2, r3
 80022d4:	4b05      	ldr	r3, [pc, #20]	@ (80022ec <adc_conv_rawNTC_polling+0x68>)
 80022d6:	80da      	strh	r2, [r3, #6]
  __ASM volatile ("cpsie i" : : : "memory");
 80022d8:	b662      	cpsie	i
}
 80022da:	bf00      	nop

    UTILS_ENABLE_ISR(); // critical section end

    return vAdc_handler[ADC_HANDLER_U_CH_IDX].aux_rawVal;
 80022dc:	4b03      	ldr	r3, [pc, #12]	@ (80022ec <adc_conv_rawNTC_polling+0x68>)
 80022de:	88db      	ldrh	r3, [r3, #6]
}
 80022e0:	4618      	mov	r0, r3
 80022e2:	46bd      	mov	sp, r7
 80022e4:	f85d 7b04 	ldr.w	r7, [sp], #4
 80022e8:	4770      	bx	lr
 80022ea:	bf00      	nop
 80022ec:	20000248 	.word	0x20000248

080022f0 <adc_conv_rawThrottle_polling>:

uint16_t adc_conv_rawThrottle_polling(void)
{
 80022f0:	b480      	push	{r7}
 80022f2:	af00      	add	r7, sp, #0
  __ASM volatile ("cpsid i" : : : "memory");
 80022f4:	b672      	cpsid	i
}
 80022f6:	bf00      	nop
	UTILS_DISABLE_ISR(); // critical section start

    vAdc_handler[ADC_HANDLER_V_CH_IDX].inst->SQR3 &= ~ADC_SQR3_SQ1_Msk;
 80022f8:	4b17      	ldr	r3, [pc, #92]	@ (8002358 <adc_conv_rawThrottle_polling+0x68>)
 80022fa:	68db      	ldr	r3, [r3, #12]
 80022fc:	6b5a      	ldr	r2, [r3, #52]	@ 0x34
 80022fe:	4b16      	ldr	r3, [pc, #88]	@ (8002358 <adc_conv_rawThrottle_polling+0x68>)
 8002300:	68db      	ldr	r3, [r3, #12]
 8002302:	f022 021f 	bic.w	r2, r2, #31
 8002306:	635a      	str	r2, [r3, #52]	@ 0x34
    vAdc_handler[ADC_HANDLER_V_CH_IDX].inst->SQR3 |= UTILS_BIT_SHIFT(0,7); // ADC2_IN7 (throttle)
 8002308:	4b13      	ldr	r3, [pc, #76]	@ (8002358 <adc_conv_rawThrottle_polling+0x68>)
 800230a:	68db      	ldr	r3, [r3, #12]
 800230c:	6b5a      	ldr	r2, [r3, #52]	@ 0x34
 800230e:	4b12      	ldr	r3, [pc, #72]	@ (8002358 <adc_conv_rawThrottle_polling+0x68>)
 8002310:	68db      	ldr	r3, [r3, #12]
 8002312:	f042 0207 	orr.w	r2, r2, #7
 8002316:	635a      	str	r2, [r3, #52]	@ 0x34
    vAdc_handler[ADC_HANDLER_V_CH_IDX].inst->CR2 |= ADC_CR2_SWSTART;
 8002318:	4b0f      	ldr	r3, [pc, #60]	@ (8002358 <adc_conv_rawThrottle_polling+0x68>)
 800231a:	68db      	ldr	r3, [r3, #12]
 800231c:	689a      	ldr	r2, [r3, #8]
 800231e:	4b0e      	ldr	r3, [pc, #56]	@ (8002358 <adc_conv_rawThrottle_polling+0x68>)
 8002320:	68db      	ldr	r3, [r3, #12]
 8002322:	f042 4280 	orr.w	r2, r2, #1073741824	@ 0x40000000
 8002326:	609a      	str	r2, [r3, #8]
    
    while(!(vAdc_handler[ADC_HANDLER_V_CH_IDX].inst->SR & ADC_SR_EOC));
 8002328:	bf00      	nop
 800232a:	4b0b      	ldr	r3, [pc, #44]	@ (8002358 <adc_conv_rawThrottle_polling+0x68>)
 800232c:	68db      	ldr	r3, [r3, #12]
 800232e:	681b      	ldr	r3, [r3, #0]
 8002330:	f003 0302 	and.w	r3, r3, #2
 8002334:	2b00      	cmp	r3, #0
 8002336:	d0f8      	beq.n	800232a <adc_conv_rawThrottle_polling+0x3a>
    
    vAdc_handler[ADC_HANDLER_V_CH_IDX].aux_rawVal = vAdc_handler[ADC_HANDLER_V_CH_IDX].inst->DR;
 8002338:	4b07      	ldr	r3, [pc, #28]	@ (8002358 <adc_conv_rawThrottle_polling+0x68>)
 800233a:	68db      	ldr	r3, [r3, #12]
 800233c:	6cdb      	ldr	r3, [r3, #76]	@ 0x4c
 800233e:	b29a      	uxth	r2, r3
 8002340:	4b05      	ldr	r3, [pc, #20]	@ (8002358 <adc_conv_rawThrottle_polling+0x68>)
 8002342:	825a      	strh	r2, [r3, #18]
  __ASM volatile ("cpsie i" : : : "memory");
 8002344:	b662      	cpsie	i
}
 8002346:	bf00      	nop

    UTILS_ENABLE_ISR(); // critical section end

    return vAdc_handler[ADC_HANDLER_V_CH_IDX].aux_rawVal;
 8002348:	4b03      	ldr	r3, [pc, #12]	@ (8002358 <adc_conv_rawThrottle_polling+0x68>)
 800234a:	8a5b      	ldrh	r3, [r3, #18]
}
 800234c:	4618      	mov	r0, r3
 800234e:	46bd      	mov	sp, r7
 8002350:	f85d 7b04 	ldr.w	r7, [sp], #4
 8002354:	4770      	bx	lr
 8002356:	bf00      	nop
 8002358:	20000248 	.word	0x20000248

0800235c <adc_conv_rawVdc_polling>:

uint16_t adc_conv_rawVdc_polling(void)
{
 800235c:	b480      	push	{r7}
 800235e:	af00      	add	r7, sp, #0
  __ASM volatile ("cpsid i" : : : "memory");
 8002360:	b672      	cpsid	i
}
 8002362:	bf00      	nop
	UTILS_DISABLE_ISR(); // critical section start

    vAdc_handler[ADC_HANDLER_W_CH_IDX].inst->SQR3 &= ~ADC_SQR3_SQ1_Msk;
 8002364:	4b17      	ldr	r3, [pc, #92]	@ (80023c4 <adc_conv_rawVdc_polling+0x68>)
 8002366:	699b      	ldr	r3, [r3, #24]
 8002368:	6b5a      	ldr	r2, [r3, #52]	@ 0x34
 800236a:	4b16      	ldr	r3, [pc, #88]	@ (80023c4 <adc_conv_rawVdc_polling+0x68>)
 800236c:	699b      	ldr	r3, [r3, #24]
 800236e:	f022 021f 	bic.w	r2, r2, #31
 8002372:	635a      	str	r2, [r3, #52]	@ 0x34
    vAdc_handler[ADC_HANDLER_W_CH_IDX].inst->SQR3 |= UTILS_BIT_SHIFT(0,3); // ADC3_IN3 (vdc)
 8002374:	4b13      	ldr	r3, [pc, #76]	@ (80023c4 <adc_conv_rawVdc_polling+0x68>)
 8002376:	699b      	ldr	r3, [r3, #24]
 8002378:	6b5a      	ldr	r2, [r3, #52]	@ 0x34
 800237a:	4b12      	ldr	r3, [pc, #72]	@ (80023c4 <adc_conv_rawVdc_polling+0x68>)
 800237c:	699b      	ldr	r3, [r3, #24]
 800237e:	f042 0203 	orr.w	r2, r2, #3
 8002382:	635a      	str	r2, [r3, #52]	@ 0x34
    vAdc_handler[ADC_HANDLER_W_CH_IDX].inst->CR2 |= ADC_CR2_SWSTART;
 8002384:	4b0f      	ldr	r3, [pc, #60]	@ (80023c4 <adc_conv_rawVdc_polling+0x68>)
 8002386:	699b      	ldr	r3, [r3, #24]
 8002388:	689a      	ldr	r2, [r3, #8]
 800238a:	4b0e      	ldr	r3, [pc, #56]	@ (80023c4 <adc_conv_rawVdc_polling+0x68>)
 800238c:	699b      	ldr	r3, [r3, #24]
 800238e:	f042 4280 	orr.w	r2, r2, #1073741824	@ 0x40000000
 8002392:	609a      	str	r2, [r3, #8]
    
    while(!(vAdc_handler[ADC_HANDLER_W_CH_IDX].inst->SR & ADC_SR_EOC));
 8002394:	bf00      	nop
 8002396:	4b0b      	ldr	r3, [pc, #44]	@ (80023c4 <adc_conv_rawVdc_polling+0x68>)
 8002398:	699b      	ldr	r3, [r3, #24]
 800239a:	681b      	ldr	r3, [r3, #0]
 800239c:	f003 0302 	and.w	r3, r3, #2
 80023a0:	2b00      	cmp	r3, #0
 80023a2:	d0f8      	beq.n	8002396 <adc_conv_rawVdc_polling+0x3a>
    
    vAdc_handler[ADC_HANDLER_W_CH_IDX].aux_rawVal = vAdc_handler[ADC_HANDLER_W_CH_IDX].inst->DR;
 80023a4:	4b07      	ldr	r3, [pc, #28]	@ (80023c4 <adc_conv_rawVdc_polling+0x68>)
 80023a6:	699b      	ldr	r3, [r3, #24]
 80023a8:	6cdb      	ldr	r3, [r3, #76]	@ 0x4c
 80023aa:	b29a      	uxth	r2, r3
 80023ac:	4b05      	ldr	r3, [pc, #20]	@ (80023c4 <adc_conv_rawVdc_polling+0x68>)
 80023ae:	83da      	strh	r2, [r3, #30]
  __ASM volatile ("cpsie i" : : : "memory");
 80023b0:	b662      	cpsie	i
}
 80023b2:	bf00      	nop

    UTILS_ENABLE_ISR(); // critical section end

    return vAdc_handler[ADC_HANDLER_W_CH_IDX].aux_rawVal;
 80023b4:	4b03      	ldr	r3, [pc, #12]	@ (80023c4 <adc_conv_rawVdc_polling+0x68>)
 80023b6:	8bdb      	ldrh	r3, [r3, #30]
}
 80023b8:	4618      	mov	r0, r3
 80023ba:	46bd      	mov	sp, r7
 80023bc:	f85d 7b04 	ldr.w	r7, [sp], #4
 80023c0:	4770      	bx	lr
 80023c2:	bf00      	nop
 80023c4:	20000248 	.word	0x20000248

080023c8 <adc_conv_rawIus_polling>:

// 전류 ADC 변환 함수들 (polling 방식)

uint16_t adc_conv_rawIus_polling(void)
{
 80023c8:	b480      	push	{r7}
 80023ca:	af00      	add	r7, sp, #0
    vAdc_handler[ADC_HANDLER_U_CH_IDX].inst->SQR3 &= ~ADC_SQR3_SQ1_Msk;
 80023cc:	4b15      	ldr	r3, [pc, #84]	@ (8002424 <adc_conv_rawIus_polling+0x5c>)
 80023ce:	681b      	ldr	r3, [r3, #0]
 80023d0:	6b5a      	ldr	r2, [r3, #52]	@ 0x34
 80023d2:	4b14      	ldr	r3, [pc, #80]	@ (8002424 <adc_conv_rawIus_polling+0x5c>)
 80023d4:	681b      	ldr	r3, [r3, #0]
 80023d6:	f022 021f 	bic.w	r2, r2, #31
 80023da:	635a      	str	r2, [r3, #52]	@ 0x34
    vAdc_handler[ADC_HANDLER_U_CH_IDX].inst->SQR3 |= UTILS_BIT_SHIFT(0,0); // ADC1_IN0 (Ias)
 80023dc:	4b11      	ldr	r3, [pc, #68]	@ (8002424 <adc_conv_rawIus_polling+0x5c>)
 80023de:	681a      	ldr	r2, [r3, #0]
 80023e0:	4b10      	ldr	r3, [pc, #64]	@ (8002424 <adc_conv_rawIus_polling+0x5c>)
 80023e2:	681b      	ldr	r3, [r3, #0]
 80023e4:	6b52      	ldr	r2, [r2, #52]	@ 0x34
 80023e6:	635a      	str	r2, [r3, #52]	@ 0x34
    vAdc_handler[ADC_HANDLER_U_CH_IDX].inst->CR2 |= ADC_CR2_SWSTART;
 80023e8:	4b0e      	ldr	r3, [pc, #56]	@ (8002424 <adc_conv_rawIus_polling+0x5c>)
 80023ea:	681b      	ldr	r3, [r3, #0]
 80023ec:	689a      	ldr	r2, [r3, #8]
 80023ee:	4b0d      	ldr	r3, [pc, #52]	@ (8002424 <adc_conv_rawIus_polling+0x5c>)
 80023f0:	681b      	ldr	r3, [r3, #0]
 80023f2:	f042 4280 	orr.w	r2, r2, #1073741824	@ 0x40000000
 80023f6:	609a      	str	r2, [r3, #8]

    while(!(vAdc_handler[ADC_HANDLER_U_CH_IDX].inst->SR & ADC_SR_EOC));
 80023f8:	bf00      	nop
 80023fa:	4b0a      	ldr	r3, [pc, #40]	@ (8002424 <adc_conv_rawIus_polling+0x5c>)
 80023fc:	681b      	ldr	r3, [r3, #0]
 80023fe:	681b      	ldr	r3, [r3, #0]
 8002400:	f003 0302 	and.w	r3, r3, #2
 8002404:	2b00      	cmp	r3, #0
 8002406:	d0f8      	beq.n	80023fa <adc_conv_rawIus_polling+0x32>
    
    vAdc_handler[ADC_HANDLER_U_CH_IDX].curr_rawVal = vAdc_handler[ADC_HANDLER_U_CH_IDX].inst->DR;
 8002408:	4b06      	ldr	r3, [pc, #24]	@ (8002424 <adc_conv_rawIus_polling+0x5c>)
 800240a:	681b      	ldr	r3, [r3, #0]
 800240c:	6cdb      	ldr	r3, [r3, #76]	@ 0x4c
 800240e:	b29a      	uxth	r2, r3
 8002410:	4b04      	ldr	r3, [pc, #16]	@ (8002424 <adc_conv_rawIus_polling+0x5c>)
 8002412:	809a      	strh	r2, [r3, #4]
    return vAdc_handler[ADC_HANDLER_U_CH_IDX].curr_rawVal;
 8002414:	4b03      	ldr	r3, [pc, #12]	@ (8002424 <adc_conv_rawIus_polling+0x5c>)
 8002416:	889b      	ldrh	r3, [r3, #4]
}
 8002418:	4618      	mov	r0, r3
 800241a:	46bd      	mov	sp, r7
 800241c:	f85d 7b04 	ldr.w	r7, [sp], #4
 8002420:	4770      	bx	lr
 8002422:	bf00      	nop
 8002424:	20000248 	.word	0x20000248

08002428 <adc_conv_rawIvs_polling>:

uint16_t adc_conv_rawIvs_polling(void)
{
 8002428:	b480      	push	{r7}
 800242a:	af00      	add	r7, sp, #0
    vAdc_handler[ADC_HANDLER_V_CH_IDX].inst->SQR3 &= ~ADC_SQR3_SQ1_Msk;
 800242c:	4b16      	ldr	r3, [pc, #88]	@ (8002488 <adc_conv_rawIvs_polling+0x60>)
 800242e:	68db      	ldr	r3, [r3, #12]
 8002430:	6b5a      	ldr	r2, [r3, #52]	@ 0x34
 8002432:	4b15      	ldr	r3, [pc, #84]	@ (8002488 <adc_conv_rawIvs_polling+0x60>)
 8002434:	68db      	ldr	r3, [r3, #12]
 8002436:	f022 021f 	bic.w	r2, r2, #31
 800243a:	635a      	str	r2, [r3, #52]	@ 0x34
    vAdc_handler[ADC_HANDLER_V_CH_IDX].inst->SQR3 |= UTILS_BIT_SHIFT(0,1); // ADC2_IN1 (Ibs)
 800243c:	4b12      	ldr	r3, [pc, #72]	@ (8002488 <adc_conv_rawIvs_polling+0x60>)
 800243e:	68db      	ldr	r3, [r3, #12]
 8002440:	6b5a      	ldr	r2, [r3, #52]	@ 0x34
 8002442:	4b11      	ldr	r3, [pc, #68]	@ (8002488 <adc_conv_rawIvs_polling+0x60>)
 8002444:	68db      	ldr	r3, [r3, #12]
 8002446:	f042 0201 	orr.w	r2, r2, #1
 800244a:	635a      	str	r2, [r3, #52]	@ 0x34
    vAdc_handler[ADC_HANDLER_V_CH_IDX].inst->CR2 |= ADC_CR2_SWSTART;
 800244c:	4b0e      	ldr	r3, [pc, #56]	@ (8002488 <adc_conv_rawIvs_polling+0x60>)
 800244e:	68db      	ldr	r3, [r3, #12]
 8002450:	689a      	ldr	r2, [r3, #8]
 8002452:	4b0d      	ldr	r3, [pc, #52]	@ (8002488 <adc_conv_rawIvs_polling+0x60>)
 8002454:	68db      	ldr	r3, [r3, #12]
 8002456:	f042 4280 	orr.w	r2, r2, #1073741824	@ 0x40000000
 800245a:	609a      	str	r2, [r3, #8]
    
    while(!(vAdc_handler[ADC_HANDLER_V_CH_IDX].inst->SR & ADC_SR_EOC));
 800245c:	bf00      	nop
 800245e:	4b0a      	ldr	r3, [pc, #40]	@ (8002488 <adc_conv_rawIvs_polling+0x60>)
 8002460:	68db      	ldr	r3, [r3, #12]
 8002462:	681b      	ldr	r3, [r3, #0]
 8002464:	f003 0302 	and.w	r3, r3, #2
 8002468:	2b00      	cmp	r3, #0
 800246a:	d0f8      	beq.n	800245e <adc_conv_rawIvs_polling+0x36>
    
    vAdc_handler[ADC_HANDLER_V_CH_IDX].curr_rawVal = vAdc_handler[ADC_HANDLER_V_CH_IDX].inst->DR;
 800246c:	4b06      	ldr	r3, [pc, #24]	@ (8002488 <adc_conv_rawIvs_polling+0x60>)
 800246e:	68db      	ldr	r3, [r3, #12]
 8002470:	6cdb      	ldr	r3, [r3, #76]	@ 0x4c
 8002472:	b29a      	uxth	r2, r3
 8002474:	4b04      	ldr	r3, [pc, #16]	@ (8002488 <adc_conv_rawIvs_polling+0x60>)
 8002476:	821a      	strh	r2, [r3, #16]
    return vAdc_handler[ADC_HANDLER_V_CH_IDX].curr_rawVal;
 8002478:	4b03      	ldr	r3, [pc, #12]	@ (8002488 <adc_conv_rawIvs_polling+0x60>)
 800247a:	8a1b      	ldrh	r3, [r3, #16]
}
 800247c:	4618      	mov	r0, r3
 800247e:	46bd      	mov	sp, r7
 8002480:	f85d 7b04 	ldr.w	r7, [sp], #4
 8002484:	4770      	bx	lr
 8002486:	bf00      	nop
 8002488:	20000248 	.word	0x20000248

0800248c <adc_conv_rawIws_polling>:

uint16_t adc_conv_rawIws_polling(void)
{
 800248c:	b480      	push	{r7}
 800248e:	af00      	add	r7, sp, #0
    vAdc_handler[ADC_HANDLER_W_CH_IDX].inst->SQR3 &= ~ADC_SQR3_SQ1_Msk;
 8002490:	4b16      	ldr	r3, [pc, #88]	@ (80024ec <adc_conv_rawIws_polling+0x60>)
 8002492:	699b      	ldr	r3, [r3, #24]
 8002494:	6b5a      	ldr	r2, [r3, #52]	@ 0x34
 8002496:	4b15      	ldr	r3, [pc, #84]	@ (80024ec <adc_conv_rawIws_polling+0x60>)
 8002498:	699b      	ldr	r3, [r3, #24]
 800249a:	f022 021f 	bic.w	r2, r2, #31
 800249e:	635a      	str	r2, [r3, #52]	@ 0x34
    vAdc_handler[ADC_HANDLER_W_CH_IDX].inst->SQR3 |= UTILS_BIT_SHIFT(0,2); // ADC3_IN2 (Ics)
 80024a0:	4b12      	ldr	r3, [pc, #72]	@ (80024ec <adc_conv_rawIws_polling+0x60>)
 80024a2:	699b      	ldr	r3, [r3, #24]
 80024a4:	6b5a      	ldr	r2, [r3, #52]	@ 0x34
 80024a6:	4b11      	ldr	r3, [pc, #68]	@ (80024ec <adc_conv_rawIws_polling+0x60>)
 80024a8:	699b      	ldr	r3, [r3, #24]
 80024aa:	f042 0202 	orr.w	r2, r2, #2
 80024ae:	635a      	str	r2, [r3, #52]	@ 0x34
    vAdc_handler[ADC_HANDLER_W_CH_IDX].inst->CR2 |= ADC_CR2_SWSTART;
 80024b0:	4b0e      	ldr	r3, [pc, #56]	@ (80024ec <adc_conv_rawIws_polling+0x60>)
 80024b2:	699b      	ldr	r3, [r3, #24]
 80024b4:	689a      	ldr	r2, [r3, #8]
 80024b6:	4b0d      	ldr	r3, [pc, #52]	@ (80024ec <adc_conv_rawIws_polling+0x60>)
 80024b8:	699b      	ldr	r3, [r3, #24]
 80024ba:	f042 4280 	orr.w	r2, r2, #1073741824	@ 0x40000000
 80024be:	609a      	str	r2, [r3, #8]
    
    while(!(vAdc_handler[ADC_HANDLER_W_CH_IDX].inst->SR & ADC_SR_EOC));
 80024c0:	bf00      	nop
 80024c2:	4b0a      	ldr	r3, [pc, #40]	@ (80024ec <adc_conv_rawIws_polling+0x60>)
 80024c4:	699b      	ldr	r3, [r3, #24]
 80024c6:	681b      	ldr	r3, [r3, #0]
 80024c8:	f003 0302 	and.w	r3, r3, #2
 80024cc:	2b00      	cmp	r3, #0
 80024ce:	d0f8      	beq.n	80024c2 <adc_conv_rawIws_polling+0x36>
    
    vAdc_handler[ADC_HANDLER_W_CH_IDX].curr_rawVal = vAdc_handler[ADC_HANDLER_W_CH_IDX].inst->DR;
 80024d0:	4b06      	ldr	r3, [pc, #24]	@ (80024ec <adc_conv_rawIws_polling+0x60>)
 80024d2:	699b      	ldr	r3, [r3, #24]
 80024d4:	6cdb      	ldr	r3, [r3, #76]	@ 0x4c
 80024d6:	b29a      	uxth	r2, r3
 80024d8:	4b04      	ldr	r3, [pc, #16]	@ (80024ec <adc_conv_rawIws_polling+0x60>)
 80024da:	839a      	strh	r2, [r3, #28]
    return vAdc_handler[ADC_HANDLER_W_CH_IDX].curr_rawVal;
 80024dc:	4b03      	ldr	r3, [pc, #12]	@ (80024ec <adc_conv_rawIws_polling+0x60>)
 80024de:	8b9b      	ldrh	r3, [r3, #28]
 80024e0:	4618      	mov	r0, r3
 80024e2:	46bd      	mov	sp, r7
 80024e4:	f85d 7b04 	ldr.w	r7, [sp], #4
 80024e8:	4770      	bx	lr
 80024ea:	bf00      	nop
 80024ec:	20000248 	.word	0x20000248

080024f0 <dac_init>:
#include "../Inc/Gpio.h"

typDac_handle vDac_Handler;

void dac_init(void)
{
 80024f0:	b580      	push	{r7, lr}
 80024f2:	af00      	add	r7, sp, #0
    vDac_Handler.inst = DAC;
 80024f4:	4b17      	ldr	r3, [pc, #92]	@ (8002554 <dac_init+0x64>)
 80024f6:	4a18      	ldr	r2, [pc, #96]	@ (8002558 <dac_init+0x68>)
 80024f8:	601a      	str	r2, [r3, #0]

    gpio_set_analog(DAC_OUT1_Port,4);
 80024fa:	2104      	movs	r1, #4
 80024fc:	4817      	ldr	r0, [pc, #92]	@ (800255c <dac_init+0x6c>)
 80024fe:	f7ff fc8c 	bl	8001e1a <gpio_set_analog>
    gpio_set_analog(DAC_OUT2_Port,5);
 8002502:	2105      	movs	r1, #5
 8002504:	4815      	ldr	r0, [pc, #84]	@ (800255c <dac_init+0x6c>)
 8002506:	f7ff fc88 	bl	8001e1a <gpio_set_analog>

    // OP-amp ON(BOFF) + 트리거 금지(코어가 쓰자마자 바로 출력)
    DAC->CR &= ~((DAC_CR_BOFF1 | DAC_CR_TEN1) | (DAC_CR_BOFF2 | DAC_CR_TEN2));
 800250a:	4b13      	ldr	r3, [pc, #76]	@ (8002558 <dac_init+0x68>)
 800250c:	681b      	ldr	r3, [r3, #0]
 800250e:	4a12      	ldr	r2, [pc, #72]	@ (8002558 <dac_init+0x68>)
 8002510:	f023 1306 	bic.w	r3, r3, #393222	@ 0x60006
 8002514:	6013      	str	r3, [r2, #0]
    // DAC on
    DAC->CR |= DAC_CR_EN1 | DAC_CR_EN2;
 8002516:	4b10      	ldr	r3, [pc, #64]	@ (8002558 <dac_init+0x68>)
 8002518:	681b      	ldr	r3, [r3, #0]
 800251a:	4a0f      	ldr	r2, [pc, #60]	@ (8002558 <dac_init+0x68>)
 800251c:	f043 1301 	orr.w	r3, r3, #65537	@ 0x10001
 8002520:	6013      	str	r3, [r2, #0]

    vDac_Handler.is_initialized_ch1 = ((DAC->CR & DAC_CR_EN1) != 0);
 8002522:	4b0d      	ldr	r3, [pc, #52]	@ (8002558 <dac_init+0x68>)
 8002524:	681b      	ldr	r3, [r3, #0]
 8002526:	f003 0301 	and.w	r3, r3, #1
 800252a:	2b00      	cmp	r3, #0
 800252c:	bf14      	ite	ne
 800252e:	2301      	movne	r3, #1
 8002530:	2300      	moveq	r3, #0
 8002532:	b2da      	uxtb	r2, r3
 8002534:	4b07      	ldr	r3, [pc, #28]	@ (8002554 <dac_init+0x64>)
 8002536:	711a      	strb	r2, [r3, #4]
    vDac_Handler.is_initialized_ch2 = ((DAC->CR & DAC_CR_EN2) != 0);
 8002538:	4b07      	ldr	r3, [pc, #28]	@ (8002558 <dac_init+0x68>)
 800253a:	681b      	ldr	r3, [r3, #0]
 800253c:	f403 3380 	and.w	r3, r3, #65536	@ 0x10000
 8002540:	2b00      	cmp	r3, #0
 8002542:	bf14      	ite	ne
 8002544:	2301      	movne	r3, #1
 8002546:	2300      	moveq	r3, #0
 8002548:	b2da      	uxtb	r2, r3
 800254a:	4b02      	ldr	r3, [pc, #8]	@ (8002554 <dac_init+0x64>)
 800254c:	715a      	strb	r2, [r3, #5]
}
 800254e:	bf00      	nop
 8002550:	bd80      	pop	{r7, pc}
 8002552:	bf00      	nop
 8002554:	2000026c 	.word	0x2000026c
 8002558:	40007400 	.word	0x40007400
 800255c:	40020000 	.word	0x40020000

08002560 <__NVIC_EnableIRQ>:
  \details Enables a device specific interrupt in the NVIC interrupt controller.
  \param [in]      IRQn  Device specific interrupt number.
  \note    IRQn must not be negative.
 */
__STATIC_INLINE void __NVIC_EnableIRQ(IRQn_Type IRQn)
{
 8002560:	b480      	push	{r7}
 8002562:	b083      	sub	sp, #12
 8002564:	af00      	add	r7, sp, #0
 8002566:	4603      	mov	r3, r0
 8002568:	71fb      	strb	r3, [r7, #7]
  if ((int32_t)(IRQn) >= 0)
 800256a:	f997 3007 	ldrsb.w	r3, [r7, #7]
 800256e:	2b00      	cmp	r3, #0
 8002570:	db0b      	blt.n	800258a <__NVIC_EnableIRQ+0x2a>
  {
    NVIC->ISER[(((uint32_t)IRQn) >> 5UL)] = (uint32_t)(1UL << (((uint32_t)IRQn) & 0x1FUL));
 8002572:	79fb      	ldrb	r3, [r7, #7]
 8002574:	f003 021f 	and.w	r2, r3, #31
 8002578:	4907      	ldr	r1, [pc, #28]	@ (8002598 <__NVIC_EnableIRQ+0x38>)
 800257a:	f997 3007 	ldrsb.w	r3, [r7, #7]
 800257e:	095b      	lsrs	r3, r3, #5
 8002580:	2001      	movs	r0, #1
 8002582:	fa00 f202 	lsl.w	r2, r0, r2
 8002586:	f841 2023 	str.w	r2, [r1, r3, lsl #2]
  }
}
 800258a:	bf00      	nop
 800258c:	370c      	adds	r7, #12
 800258e:	46bd      	mov	sp, r7
 8002590:	f85d 7b04 	ldr.w	r7, [sp], #4
 8002594:	4770      	bx	lr
 8002596:	bf00      	nop
 8002598:	e000e100 	.word	0xe000e100

0800259c <exti_init>:
static typExti_handle exti_hallU;
static typExti_handle exti_hallV;
static typExti_handle exti_hallW;

void exti_init(void)
{
 800259c:	b580      	push	{r7, lr}
 800259e:	b082      	sub	sp, #8
 80025a0:	af00      	add	r7, sp, #0
    uint32_t temp_reg = 0;
 80025a2:	2300      	movs	r3, #0
 80025a4:	607b      	str	r3, [r7, #4]

    exti_hallU.gpioPort = HALL_U_Port;
 80025a6:	4b3d      	ldr	r3, [pc, #244]	@ (800269c <exti_init+0x100>)
 80025a8:	4a3d      	ldr	r2, [pc, #244]	@ (80026a0 <exti_init+0x104>)
 80025aa:	601a      	str	r2, [r3, #0]
    exti_hallU.gpioPin = 0;
 80025ac:	4b3b      	ldr	r3, [pc, #236]	@ (800269c <exti_init+0x100>)
 80025ae:	2200      	movs	r2, #0
 80025b0:	711a      	strb	r2, [r3, #4]
    exti_hallV.gpioPort = HALL_V_Port;
 80025b2:	4b3c      	ldr	r3, [pc, #240]	@ (80026a4 <exti_init+0x108>)
 80025b4:	4a3a      	ldr	r2, [pc, #232]	@ (80026a0 <exti_init+0x104>)
 80025b6:	601a      	str	r2, [r3, #0]
    exti_hallV.gpioPin = 1;
 80025b8:	4b3a      	ldr	r3, [pc, #232]	@ (80026a4 <exti_init+0x108>)
 80025ba:	2201      	movs	r2, #1
 80025bc:	711a      	strb	r2, [r3, #4]
    exti_hallW.gpioPort = HALL_W_Port;
 80025be:	4b3a      	ldr	r3, [pc, #232]	@ (80026a8 <exti_init+0x10c>)
 80025c0:	4a37      	ldr	r2, [pc, #220]	@ (80026a0 <exti_init+0x104>)
 80025c2:	601a      	str	r2, [r3, #0]
    exti_hallW.gpioPin = 2;
 80025c4:	4b38      	ldr	r3, [pc, #224]	@ (80026a8 <exti_init+0x10c>)
 80025c6:	2202      	movs	r2, #2
 80025c8:	711a      	strb	r2, [r3, #4]
    exti_hallU.irqNo = EXTI_LINE_U_ISR;
 80025ca:	4b34      	ldr	r3, [pc, #208]	@ (800269c <exti_init+0x100>)
 80025cc:	2206      	movs	r2, #6
 80025ce:	715a      	strb	r2, [r3, #5]
    exti_hallV.irqNo = EXTI_LINE_V_ISR;
 80025d0:	4b34      	ldr	r3, [pc, #208]	@ (80026a4 <exti_init+0x108>)
 80025d2:	2207      	movs	r2, #7
 80025d4:	715a      	strb	r2, [r3, #5]
    exti_hallW.irqNo = EXTI_LINE_W_ISR;
 80025d6:	4b34      	ldr	r3, [pc, #208]	@ (80026a8 <exti_init+0x10c>)
 80025d8:	2208      	movs	r2, #8
 80025da:	715a      	strb	r2, [r3, #5]

    // 1. GPIO 핀을 입력으로 설정 (풀업)
    gpio_set_input(exti_hallU.gpioPort, exti_hallU.gpioPin, GPIO_PULL_UP);
 80025dc:	4b2f      	ldr	r3, [pc, #188]	@ (800269c <exti_init+0x100>)
 80025de:	681b      	ldr	r3, [r3, #0]
 80025e0:	4a2e      	ldr	r2, [pc, #184]	@ (800269c <exti_init+0x100>)
 80025e2:	7911      	ldrb	r1, [r2, #4]
 80025e4:	2201      	movs	r2, #1
 80025e6:	4618      	mov	r0, r3
 80025e8:	f7ff fbe9 	bl	8001dbe <gpio_set_input>
    gpio_set_input(exti_hallV.gpioPort, exti_hallV.gpioPin, GPIO_PULL_UP);
 80025ec:	4b2d      	ldr	r3, [pc, #180]	@ (80026a4 <exti_init+0x108>)
 80025ee:	681b      	ldr	r3, [r3, #0]
 80025f0:	4a2c      	ldr	r2, [pc, #176]	@ (80026a4 <exti_init+0x108>)
 80025f2:	7911      	ldrb	r1, [r2, #4]
 80025f4:	2201      	movs	r2, #1
 80025f6:	4618      	mov	r0, r3
 80025f8:	f7ff fbe1 	bl	8001dbe <gpio_set_input>
    gpio_set_input(exti_hallW.gpioPort, exti_hallW.gpioPin, GPIO_PULL_UP);
 80025fc:	4b2a      	ldr	r3, [pc, #168]	@ (80026a8 <exti_init+0x10c>)
 80025fe:	681b      	ldr	r3, [r3, #0]
 8002600:	4a29      	ldr	r2, [pc, #164]	@ (80026a8 <exti_init+0x10c>)
 8002602:	7911      	ldrb	r1, [r2, #4]
 8002604:	2201      	movs	r2, #1
 8002606:	4618      	mov	r0, r3
 8002608:	f7ff fbd9 	bl	8001dbe <gpio_set_input>
    
    // 2. SYSCFG 설정: 포트 연결 
    SYSCFG->EXTICR[0] &= ~(SYSCFG_EXTICR1_EXTI0_Msk | SYSCFG_EXTICR1_EXTI1_Msk | SYSCFG_EXTICR1_EXTI2_Msk);
 800260c:	4b27      	ldr	r3, [pc, #156]	@ (80026ac <exti_init+0x110>)
 800260e:	689a      	ldr	r2, [r3, #8]
 8002610:	4926      	ldr	r1, [pc, #152]	@ (80026ac <exti_init+0x110>)
 8002612:	4b27      	ldr	r3, [pc, #156]	@ (80026b0 <exti_init+0x114>)
 8002614:	4013      	ands	r3, r2
 8002616:	608b      	str	r3, [r1, #8]
    SYSCFG->EXTICR[0] |= (SYSCFG_EXTICR1_EXTI0_PD | SYSCFG_EXTICR1_EXTI1_PD | SYSCFG_EXTICR1_EXTI2_PD);
 8002618:	4b24      	ldr	r3, [pc, #144]	@ (80026ac <exti_init+0x110>)
 800261a:	689a      	ldr	r2, [r3, #8]
 800261c:	4923      	ldr	r1, [pc, #140]	@ (80026ac <exti_init+0x110>)
 800261e:	f240 3333 	movw	r3, #819	@ 0x333
 8002622:	4313      	orrs	r3, r2
 8002624:	608b      	str	r3, [r1, #8]

    // 3. EXTI 설정:
    temp_reg = UTILS_BIT_SHIFT(exti_hallU.gpioPin, 1) | UTILS_BIT_SHIFT(exti_hallV.gpioPin, 1) | UTILS_BIT_SHIFT(exti_hallW.gpioPin, 1);
 8002626:	4b1d      	ldr	r3, [pc, #116]	@ (800269c <exti_init+0x100>)
 8002628:	791b      	ldrb	r3, [r3, #4]
 800262a:	461a      	mov	r2, r3
 800262c:	2301      	movs	r3, #1
 800262e:	fa03 f202 	lsl.w	r2, r3, r2
 8002632:	4b1c      	ldr	r3, [pc, #112]	@ (80026a4 <exti_init+0x108>)
 8002634:	791b      	ldrb	r3, [r3, #4]
 8002636:	4619      	mov	r1, r3
 8002638:	2301      	movs	r3, #1
 800263a:	408b      	lsls	r3, r1
 800263c:	431a      	orrs	r2, r3
 800263e:	4b1a      	ldr	r3, [pc, #104]	@ (80026a8 <exti_init+0x10c>)
 8002640:	791b      	ldrb	r3, [r3, #4]
 8002642:	4619      	mov	r1, r3
 8002644:	2301      	movs	r3, #1
 8002646:	408b      	lsls	r3, r1
 8002648:	4313      	orrs	r3, r2
 800264a:	607b      	str	r3, [r7, #4]
    
    EXTI->IMR |= temp_reg; // 인터럽트 요청 활성화
 800264c:	4b19      	ldr	r3, [pc, #100]	@ (80026b4 <exti_init+0x118>)
 800264e:	681a      	ldr	r2, [r3, #0]
 8002650:	4918      	ldr	r1, [pc, #96]	@ (80026b4 <exti_init+0x118>)
 8002652:	687b      	ldr	r3, [r7, #4]
 8002654:	4313      	orrs	r3, r2
 8002656:	600b      	str	r3, [r1, #0]
    EXTI->RTSR |= temp_reg; // 상승 에지 트리거 설정
 8002658:	4b16      	ldr	r3, [pc, #88]	@ (80026b4 <exti_init+0x118>)
 800265a:	689a      	ldr	r2, [r3, #8]
 800265c:	4915      	ldr	r1, [pc, #84]	@ (80026b4 <exti_init+0x118>)
 800265e:	687b      	ldr	r3, [r7, #4]
 8002660:	4313      	orrs	r3, r2
 8002662:	608b      	str	r3, [r1, #8]
    EXTI->FTSR |= temp_reg; // 하강 에지 트리거 설정
 8002664:	4b13      	ldr	r3, [pc, #76]	@ (80026b4 <exti_init+0x118>)
 8002666:	68da      	ldr	r2, [r3, #12]
 8002668:	4912      	ldr	r1, [pc, #72]	@ (80026b4 <exti_init+0x118>)
 800266a:	687b      	ldr	r3, [r7, #4]
 800266c:	4313      	orrs	r3, r2
 800266e:	60cb      	str	r3, [r1, #12]

    // 4. NVIC 설정
    NVIC_EnableIRQ(exti_hallU.irqNo);
 8002670:	4b0a      	ldr	r3, [pc, #40]	@ (800269c <exti_init+0x100>)
 8002672:	f993 3005 	ldrsb.w	r3, [r3, #5]
 8002676:	4618      	mov	r0, r3
 8002678:	f7ff ff72 	bl	8002560 <__NVIC_EnableIRQ>
    NVIC_EnableIRQ(exti_hallV.irqNo);
 800267c:	4b09      	ldr	r3, [pc, #36]	@ (80026a4 <exti_init+0x108>)
 800267e:	f993 3005 	ldrsb.w	r3, [r3, #5]
 8002682:	4618      	mov	r0, r3
 8002684:	f7ff ff6c 	bl	8002560 <__NVIC_EnableIRQ>
    NVIC_EnableIRQ(exti_hallW.irqNo);
 8002688:	4b07      	ldr	r3, [pc, #28]	@ (80026a8 <exti_init+0x10c>)
 800268a:	f993 3005 	ldrsb.w	r3, [r3, #5]
 800268e:	4618      	mov	r0, r3
 8002690:	f7ff ff66 	bl	8002560 <__NVIC_EnableIRQ>
}
 8002694:	bf00      	nop
 8002696:	3708      	adds	r7, #8
 8002698:	46bd      	mov	sp, r7
 800269a:	bd80      	pop	{r7, pc}
 800269c:	20000274 	.word	0x20000274
 80026a0:	40020c00 	.word	0x40020c00
 80026a4:	2000027c 	.word	0x2000027c
 80026a8:	20000284 	.word	0x20000284
 80026ac:	40013800 	.word	0x40013800
 80026b0:	fffff000 	.word	0xfffff000
 80026b4:	40013c00 	.word	0x40013c00

080026b8 <exti_check_extiPR>:

inline bool exti_check_extiPR(uint8_t extiNum)
{
 80026b8:	b480      	push	{r7}
 80026ba:	b083      	sub	sp, #12
 80026bc:	af00      	add	r7, sp, #0
 80026be:	4603      	mov	r3, r0
 80026c0:	71fb      	strb	r3, [r7, #7]
    switch(extiNum)
 80026c2:	79fb      	ldrb	r3, [r7, #7]
 80026c4:	2b02      	cmp	r3, #2
 80026c6:	d01a      	beq.n	80026fe <exti_check_extiPR+0x46>
 80026c8:	2b02      	cmp	r3, #2
 80026ca:	dc22      	bgt.n	8002712 <exti_check_extiPR+0x5a>
 80026cc:	2b00      	cmp	r3, #0
 80026ce:	d002      	beq.n	80026d6 <exti_check_extiPR+0x1e>
 80026d0:	2b01      	cmp	r3, #1
 80026d2:	d00a      	beq.n	80026ea <exti_check_extiPR+0x32>
 80026d4:	e01d      	b.n	8002712 <exti_check_extiPR+0x5a>
    {
        case 0:
            return (EXTI->PR & EXTI_PR_PR0) != 0;
 80026d6:	4b12      	ldr	r3, [pc, #72]	@ (8002720 <exti_check_extiPR+0x68>)
 80026d8:	695b      	ldr	r3, [r3, #20]
 80026da:	f003 0301 	and.w	r3, r3, #1
 80026de:	2b00      	cmp	r3, #0
 80026e0:	bf14      	ite	ne
 80026e2:	2301      	movne	r3, #1
 80026e4:	2300      	moveq	r3, #0
 80026e6:	b2db      	uxtb	r3, r3
 80026e8:	e014      	b.n	8002714 <exti_check_extiPR+0x5c>
        case 1:
            return (EXTI->PR & EXTI_PR_PR1) != 0;
 80026ea:	4b0d      	ldr	r3, [pc, #52]	@ (8002720 <exti_check_extiPR+0x68>)
 80026ec:	695b      	ldr	r3, [r3, #20]
 80026ee:	f003 0302 	and.w	r3, r3, #2
 80026f2:	2b00      	cmp	r3, #0
 80026f4:	bf14      	ite	ne
 80026f6:	2301      	movne	r3, #1
 80026f8:	2300      	moveq	r3, #0
 80026fa:	b2db      	uxtb	r3, r3
 80026fc:	e00a      	b.n	8002714 <exti_check_extiPR+0x5c>
        case 2:
            return (EXTI->PR & EXTI_PR_PR2) != 0;
 80026fe:	4b08      	ldr	r3, [pc, #32]	@ (8002720 <exti_check_extiPR+0x68>)
 8002700:	695b      	ldr	r3, [r3, #20]
 8002702:	f003 0304 	and.w	r3, r3, #4
 8002706:	2b00      	cmp	r3, #0
 8002708:	bf14      	ite	ne
 800270a:	2301      	movne	r3, #1
 800270c:	2300      	moveq	r3, #0
 800270e:	b2db      	uxtb	r3, r3
 8002710:	e000      	b.n	8002714 <exti_check_extiPR+0x5c>
        default:
            return false;
 8002712:	2300      	movs	r3, #0
    }
}
 8002714:	4618      	mov	r0, r3
 8002716:	370c      	adds	r7, #12
 8002718:	46bd      	mov	sp, r7
 800271a:	f85d 7b04 	ldr.w	r7, [sp], #4
 800271e:	4770      	bx	lr
 8002720:	40013c00 	.word	0x40013c00

08002724 <exti_clear_extiPR>:

inline void exti_clear_extiPR(uint8_t extiNum)
{
 8002724:	b480      	push	{r7}
 8002726:	b083      	sub	sp, #12
 8002728:	af00      	add	r7, sp, #0
 800272a:	4603      	mov	r3, r0
 800272c:	71fb      	strb	r3, [r7, #7]
    switch(extiNum)
 800272e:	79fb      	ldrb	r3, [r7, #7]
 8002730:	2b02      	cmp	r3, #2
 8002732:	d014      	beq.n	800275e <exti_clear_extiPR+0x3a>
 8002734:	2b02      	cmp	r3, #2
 8002736:	dc19      	bgt.n	800276c <exti_clear_extiPR+0x48>
 8002738:	2b00      	cmp	r3, #0
 800273a:	d002      	beq.n	8002742 <exti_clear_extiPR+0x1e>
 800273c:	2b01      	cmp	r3, #1
 800273e:	d007      	beq.n	8002750 <exti_clear_extiPR+0x2c>
            break;
        case 2:
            EXTI->PR |= EXTI_PR_PR2;
            break;
        default:
            break;
 8002740:	e014      	b.n	800276c <exti_clear_extiPR+0x48>
            EXTI->PR |= EXTI_PR_PR0;
 8002742:	4b0e      	ldr	r3, [pc, #56]	@ (800277c <exti_clear_extiPR+0x58>)
 8002744:	695b      	ldr	r3, [r3, #20]
 8002746:	4a0d      	ldr	r2, [pc, #52]	@ (800277c <exti_clear_extiPR+0x58>)
 8002748:	f043 0301 	orr.w	r3, r3, #1
 800274c:	6153      	str	r3, [r2, #20]
            break;
 800274e:	e00e      	b.n	800276e <exti_clear_extiPR+0x4a>
            EXTI->PR |= EXTI_PR_PR1;
 8002750:	4b0a      	ldr	r3, [pc, #40]	@ (800277c <exti_clear_extiPR+0x58>)
 8002752:	695b      	ldr	r3, [r3, #20]
 8002754:	4a09      	ldr	r2, [pc, #36]	@ (800277c <exti_clear_extiPR+0x58>)
 8002756:	f043 0302 	orr.w	r3, r3, #2
 800275a:	6153      	str	r3, [r2, #20]
            break;
 800275c:	e007      	b.n	800276e <exti_clear_extiPR+0x4a>
            EXTI->PR |= EXTI_PR_PR2;
 800275e:	4b07      	ldr	r3, [pc, #28]	@ (800277c <exti_clear_extiPR+0x58>)
 8002760:	695b      	ldr	r3, [r3, #20]
 8002762:	4a06      	ldr	r2, [pc, #24]	@ (800277c <exti_clear_extiPR+0x58>)
 8002764:	f043 0304 	orr.w	r3, r3, #4
 8002768:	6153      	str	r3, [r2, #20]
            break;
 800276a:	e000      	b.n	800276e <exti_clear_extiPR+0x4a>
            break;
 800276c:	bf00      	nop
    }
 800276e:	bf00      	nop
 8002770:	370c      	adds	r7, #12
 8002772:	46bd      	mov	sp, r7
 8002774:	f85d 7b04 	ldr.w	r7, [sp], #4
 8002778:	4770      	bx	lr
 800277a:	bf00      	nop
 800277c:	40013c00 	.word	0x40013c00

08002780 <SysTick_Handler>:
#include "../Drv/mtrCtrl/mtrCtrl.h"

uint32_t isr_pwm1_intrrpt_cnt_debug;

void SysTick_Handler(void)
{
 8002780:	b580      	push	{r7, lr}
 8002782:	af00      	add	r7, sp, #0
    tasksch_timeManager();
 8002784:	f7ff f82a 	bl	80017dc <tasksch_timeManager>
}
 8002788:	bf00      	nop
 800278a:	bd80      	pop	{r7, pc}

0800278c <EXTI0_IRQHandler>:

// 원래 EXTI0~4 까지는 단 하나의 핀하고 연결(SYSCFG->EXTICR)되서 PR레지스터만 clr해주면 됨
// 하지만, 전기적인 노이즈 때문에 PR을 한번 더 확인함 방어적 프로그래밍임
void EXTI0_IRQHandler(void)
{
 800278c:	b580      	push	{r7, lr}
 800278e:	af00      	add	r7, sp, #0
    if (exti_check_extiPR(0))
 8002790:	2000      	movs	r0, #0
 8002792:	f7ff ff91 	bl	80026b8 <exti_check_extiPR>
 8002796:	4603      	mov	r3, r0
 8002798:	2b00      	cmp	r3, #0
 800279a:	d006      	beq.n	80027aa <EXTI0_IRQHandler+0x1e>
    {
        exti_clear_extiPR(0); // 인터럽트 플래그 클리어
 800279c:	2000      	movs	r0, #0
 800279e:	f7ff ffc1 	bl	8002724 <exti_clear_extiPR>
        hallsens_update_hallSeq();
 80027a2:	f7fd fd49 	bl	8000238 <hallsens_update_hallSeq>
        hallsens_cal_motorRPM();
 80027a6:	f7fd fea5 	bl	80004f4 <hallsens_cal_motorRPM>
    }
}
 80027aa:	bf00      	nop
 80027ac:	bd80      	pop	{r7, pc}

080027ae <EXTI1_IRQHandler>:

void EXTI1_IRQHandler(void)
{
 80027ae:	b580      	push	{r7, lr}
 80027b0:	af00      	add	r7, sp, #0
    if (exti_check_extiPR(1))
 80027b2:	2001      	movs	r0, #1
 80027b4:	f7ff ff80 	bl	80026b8 <exti_check_extiPR>
 80027b8:	4603      	mov	r3, r0
 80027ba:	2b00      	cmp	r3, #0
 80027bc:	d006      	beq.n	80027cc <EXTI1_IRQHandler+0x1e>
    {
        exti_clear_extiPR(1); // 인터럽트 플래그 클리어
 80027be:	2001      	movs	r0, #1
 80027c0:	f7ff ffb0 	bl	8002724 <exti_clear_extiPR>
        hallsens_update_hallSeq();
 80027c4:	f7fd fd38 	bl	8000238 <hallsens_update_hallSeq>
        hallsens_cal_motorRPM();
 80027c8:	f7fd fe94 	bl	80004f4 <hallsens_cal_motorRPM>
    }
}
 80027cc:	bf00      	nop
 80027ce:	bd80      	pop	{r7, pc}

080027d0 <EXTI2_IRQHandler>:

void EXTI2_IRQHandler(void)
{
 80027d0:	b580      	push	{r7, lr}
 80027d2:	af00      	add	r7, sp, #0
    if (exti_check_extiPR(2))
 80027d4:	2002      	movs	r0, #2
 80027d6:	f7ff ff6f 	bl	80026b8 <exti_check_extiPR>
 80027da:	4603      	mov	r3, r0
 80027dc:	2b00      	cmp	r3, #0
 80027de:	d006      	beq.n	80027ee <EXTI2_IRQHandler+0x1e>
    {
        exti_clear_extiPR(2); // 인터럽트 플래그 클리어
 80027e0:	2002      	movs	r0, #2
 80027e2:	f7ff ff9f 	bl	8002724 <exti_clear_extiPR>
        hallsens_update_hallSeq();
 80027e6:	f7fd fd27 	bl	8000238 <hallsens_update_hallSeq>
        hallsens_cal_motorRPM();
 80027ea:	f7fd fe83 	bl	80004f4 <hallsens_cal_motorRPM>
    }
}
 80027ee:	bf00      	nop
 80027f0:	bd80      	pop	{r7, pc}
	...

080027f4 <TIM1_UP_TIM10_IRQHandler>:

void TIM1_UP_TIM10_IRQHandler(void) // 20KHz 로 호출됨
{
 80027f4:	b580      	push	{r7, lr}
 80027f6:	af00      	add	r7, sp, #0
	isr_pwm1_intrrpt_cnt_debug++;
 80027f8:	4b19      	ldr	r3, [pc, #100]	@ (8002860 <TIM1_UP_TIM10_IRQHandler+0x6c>)
 80027fa:	681b      	ldr	r3, [r3, #0]
 80027fc:	3301      	adds	r3, #1
 80027fe:	4a18      	ldr	r2, [pc, #96]	@ (8002860 <TIM1_UP_TIM10_IRQHandler+0x6c>)
 8002800:	6013      	str	r3, [r2, #0]
	hallsens_check_zeroSpd();
 8002802:	f7fd fec9 	bl	8000598 <hallsens_check_zeroSpd>
	mtrCtrl_chkErrSt(MTRCTRL_ERR_OVER_CURRENT);
 8002806:	2001      	movs	r0, #1
 8002808:	f7fe f8ea 	bl	80009e0 <mtrCtrl_chkErrSt>

    if (tim_getPwm1_ISR_flg() == true)
 800280c:	f000 fc2a 	bl	8003064 <tim_getPwm1_ISR_flg>
 8002810:	4603      	mov	r3, r0
 8002812:	2b00      	cmp	r3, #0
 8002814:	d020      	beq.n	8002858 <TIM1_UP_TIM10_IRQHandler+0x64>
    {
        tim_clrPwm1_ISR_flg();
 8002816:	f000 fc39 	bl	800308c <tim_clrPwm1_ISR_flg>

        if (mtrCtrl_getPeriphInit() == true && mtrCtrl_getAppInit_flg() == true)
 800281a:	f7fe f8ad 	bl	8000978 <mtrCtrl_getPeriphInit>
 800281e:	4603      	mov	r3, r0
 8002820:	2b00      	cmp	r3, #0
 8002822:	d019      	beq.n	8002858 <TIM1_UP_TIM10_IRQHandler+0x64>
 8002824:	f7fe f944 	bl	8000ab0 <mtrCtrl_getAppInit_flg>
 8002828:	4603      	mov	r3, r0
 800282a:	2b00      	cmp	r3, #0
 800282c:	d014      	beq.n	8002858 <TIM1_UP_TIM10_IRQHandler+0x64>
        {
            // PI제어일때도 역시 스로틀이 눌려야 실질적으로 모터가 동작함
            if(mtrCtrl_getErrCode() == MTRCTRL_ERR_NONE && throttle_get_validateFlg() == true)
 800282e:	f7fe f933 	bl	8000a98 <mtrCtrl_getErrCode>
 8002832:	4603      	mov	r3, r0
 8002834:	2b05      	cmp	r3, #5
 8002836:	d10c      	bne.n	8002852 <TIM1_UP_TIM10_IRQHandler+0x5e>
 8002838:	f7fe fa06 	bl	8000c48 <throttle_get_validateFlg>
 800283c:	4603      	mov	r3, r0
 800283e:	2b00      	cmp	r3, #0
 8002840:	d007      	beq.n	8002852 <TIM1_UP_TIM10_IRQHandler+0x5e>
            {
                tim_Pwm1_Unmute_channel(TIM_SELECT_OUTPUT_FLG);
 8002842:	2000      	movs	r0, #0
 8002844:	f000 fb4c 	bl	8002ee0 <tim_Pwm1_Unmute_channel>

                hallsens_update_hallSeq();
 8002848:	f7fd fcf6 	bl	8000238 <hallsens_update_hallSeq>
                hallsens_update_swtPattern();
 800284c:	f7fd fe4c 	bl	80004e8 <hallsens_update_swtPattern>
 8002850:	e002      	b.n	8002858 <TIM1_UP_TIM10_IRQHandler+0x64>
            }
            else
            {
                tim_Pwm1_Mute_channel(TIM_SELECT_OUTPUT_FLG);
 8002852:	2000      	movs	r0, #0
 8002854:	f000 fade 	bl	8002e14 <tim_Pwm1_Mute_channel>
            }
        }
    }
    hallsens_filtering_rawRPM();
 8002858:	f7fd fe8c 	bl	8000574 <hallsens_filtering_rawRPM>
}
 800285c:	bf00      	nop
 800285e:	bd80      	pop	{r7, pc}
 8002860:	2000028c 	.word	0x2000028c

08002864 <main>:
#include "uart.h"
#include "../Drv/tasksch/tasksch.h"
#include "../Drv/mtrCtrl/mtrCtrl.h"

int main(void)
{
 8002864:	b580      	push	{r7, lr}
 8002866:	af00      	add	r7, sp, #0
    system_mcu_init();
 8002868:	f000 f936 	bl	8002ad8 <system_mcu_init>
    system_sysTick_init();
 800286c:	f000 f998 	bl	8002ba0 <system_sysTick_init>
    gpio_init();
 8002870:	f7ff fb9a 	bl	8001fa8 <gpio_init>
    tim_init();
 8002874:	f000 faba 	bl	8002dec <tim_init>
    exti_init();
 8002878:	f7ff fe90 	bl	800259c <exti_init>
    adc_init();
 800287c:	f7ff fc4a 	bl	8002114 <adc_init>
    dac_init();
 8002880:	f7ff fe36 	bl	80024f0 <dac_init>
    uart_AT09_init(9600, 8, 1, UART_PARITY_NONE);
 8002884:	2300      	movs	r3, #0
 8002886:	2201      	movs	r2, #1
 8002888:	2108      	movs	r1, #8
 800288a:	f44f 5016 	mov.w	r0, #9600	@ 0x2580
 800288e:	f000 fc85 	bl	800319c <uart_AT09_init>
    uart_debug_init(9600, 8, 1, UART_PARITY_NONE);
 8002892:	2300      	movs	r3, #0
 8002894:	2201      	movs	r2, #1
 8002896:	2108      	movs	r1, #8
 8002898:	f44f 5016 	mov.w	r0, #9600	@ 0x2580
 800289c:	f000 fcae 	bl	80031fc <uart_debug_init>
    tasksch_init();
 80028a0:	f7fe fea2 	bl	80015e8 <tasksch_init>
    mtrCtrl_objInit(0,0);
 80028a4:	eddf 0a07 	vldr	s1, [pc, #28]	@ 80028c4 <main+0x60>
 80028a8:	ed9f 0a06 	vldr	s0, [pc, #24]	@ 80028c4 <main+0x60>
 80028ac:	f7fd ffc0 	bl	8000830 <mtrCtrl_objInit>
    mtrCtrl_setPeriphInit();
 80028b0:	f7fe f86e 	bl	8000990 <mtrCtrl_setPeriphInit>

    tim_pwm1_nvic_counterSet(); // TIM1의 ISR에서 모듈을 사용하기에 제일 마지막에 호출 될 것
 80028b4:	f000 fa80 	bl	8002db8 <tim_pwm1_nvic_counterSet>

    tasksch_execTask();
 80028b8:	f7fe feec 	bl	8001694 <tasksch_execTask>
 80028bc:	2300      	movs	r3, #0
}
 80028be:	4618      	mov	r0, r3
 80028c0:	bd80      	pop	{r7, pc}
 80028c2:	bf00      	nop
 80028c4:	00000000 	.word	0x00000000

080028c8 <NMI_Handler>:
/******************************************************************************/
/**
  * @brief This function handles Non maskable interrupt.
  */
void NMI_Handler(void)
{
 80028c8:	b480      	push	{r7}
 80028ca:	af00      	add	r7, sp, #0
  /* USER CODE BEGIN NonMaskableInt_IRQn 0 */

  /* USER CODE END NonMaskableInt_IRQn 0 */
  /* USER CODE BEGIN NonMaskableInt_IRQn 1 */
   while (1)
 80028cc:	bf00      	nop
 80028ce:	e7fd      	b.n	80028cc <NMI_Handler+0x4>

080028d0 <HardFault_Handler>:

/**
  * @brief This function handles Hard fault interrupt.
  */
void HardFault_Handler(void)
{
 80028d0:	b480      	push	{r7}
 80028d2:	af00      	add	r7, sp, #0
  /* USER CODE BEGIN HardFault_IRQn 0 */

  /* USER CODE END HardFault_IRQn 0 */
  while (1)
 80028d4:	bf00      	nop
 80028d6:	e7fd      	b.n	80028d4 <HardFault_Handler+0x4>

080028d8 <MemManage_Handler>:

/**
  * @brief This function handles Memory management fault.
  */
void MemManage_Handler(void)
{
 80028d8:	b480      	push	{r7}
 80028da:	af00      	add	r7, sp, #0
  /* USER CODE BEGIN MemoryManagement_IRQn 0 */

  /* USER CODE END MemoryManagement_IRQn 0 */
  while (1)
 80028dc:	bf00      	nop
 80028de:	e7fd      	b.n	80028dc <MemManage_Handler+0x4>

080028e0 <BusFault_Handler>:

/**
  * @brief This function handles Pre-fetch fault, memory access fault.
  */
void BusFault_Handler(void)
{
 80028e0:	b480      	push	{r7}
 80028e2:	af00      	add	r7, sp, #0
  /* USER CODE BEGIN BusFault_IRQn 0 */

  /* USER CODE END BusFault_IRQn 0 */
  while (1)
 80028e4:	bf00      	nop
 80028e6:	e7fd      	b.n	80028e4 <BusFault_Handler+0x4>

080028e8 <UsageFault_Handler>:

/**
  * @brief This function handles Undefined instruction or illegal state.
  */
void UsageFault_Handler(void)
{
 80028e8:	b480      	push	{r7}
 80028ea:	af00      	add	r7, sp, #0
  /* USER CODE BEGIN UsageFault_IRQn 0 */

  /* USER CODE END UsageFault_IRQn 0 */
  while (1)
 80028ec:	bf00      	nop
 80028ee:	e7fd      	b.n	80028ec <UsageFault_Handler+0x4>

080028f0 <SVC_Handler>:

/**
  * @brief This function handles System service call via SWI instruction.
  */
void SVC_Handler(void)
{
 80028f0:	b480      	push	{r7}
 80028f2:	af00      	add	r7, sp, #0

  /* USER CODE END SVCall_IRQn 0 */
  /* USER CODE BEGIN SVCall_IRQn 1 */

  /* USER CODE END SVCall_IRQn 1 */
}
 80028f4:	bf00      	nop
 80028f6:	46bd      	mov	sp, r7
 80028f8:	f85d 7b04 	ldr.w	r7, [sp], #4
 80028fc:	4770      	bx	lr

080028fe <DebugMon_Handler>:

/**
  * @brief This function handles Debug monitor.
  */
void DebugMon_Handler(void)
{
 80028fe:	b480      	push	{r7}
 8002900:	af00      	add	r7, sp, #0

  /* USER CODE END DebugMonitor_IRQn 0 */
  /* USER CODE BEGIN DebugMonitor_IRQn 1 */

  /* USER CODE END DebugMonitor_IRQn 1 */
}
 8002902:	bf00      	nop
 8002904:	46bd      	mov	sp, r7
 8002906:	f85d 7b04 	ldr.w	r7, [sp], #4
 800290a:	4770      	bx	lr

0800290c <PendSV_Handler>:

/**
  * @brief This function handles Pendable request for system service.
  */
void PendSV_Handler(void)
{
 800290c:	b480      	push	{r7}
 800290e:	af00      	add	r7, sp, #0

  /* USER CODE END PendSV_IRQn 0 */
  /* USER CODE BEGIN PendSV_IRQn 1 */

  /* USER CODE END PendSV_IRQn 1 */
}
 8002910:	bf00      	nop
 8002912:	46bd      	mov	sp, r7
 8002914:	f85d 7b04 	ldr.w	r7, [sp], #4
 8002918:	4770      	bx	lr
	...

0800291c <SCB_EnableICache>:
/**
  \brief   Enable I-Cache
  \details Turns on I-Cache
  */
__STATIC_INLINE void SCB_EnableICache (void)
{
 800291c:	b480      	push	{r7}
 800291e:	af00      	add	r7, sp, #0
  \details Acts as a special kind of Data Memory Barrier.
           It completes when all explicit memory accesses before this instruction complete.
 */
__STATIC_FORCEINLINE void __DSB(void)
{
  __ASM volatile ("dsb 0xF":::"memory");
 8002920:	f3bf 8f4f 	dsb	sy
}
 8002924:	bf00      	nop
  __ASM volatile ("isb 0xF":::"memory");
 8002926:	f3bf 8f6f 	isb	sy
}
 800292a:	bf00      	nop
  #if defined (__ICACHE_PRESENT) && (__ICACHE_PRESENT == 1U)
    __DSB();
    __ISB();
    SCB->ICIALLU = 0UL;                     /* invalidate I-Cache */
 800292c:	4b0d      	ldr	r3, [pc, #52]	@ (8002964 <SCB_EnableICache+0x48>)
 800292e:	2200      	movs	r2, #0
 8002930:	f8c3 2250 	str.w	r2, [r3, #592]	@ 0x250
  __ASM volatile ("dsb 0xF":::"memory");
 8002934:	f3bf 8f4f 	dsb	sy
}
 8002938:	bf00      	nop
  __ASM volatile ("isb 0xF":::"memory");
 800293a:	f3bf 8f6f 	isb	sy
}
 800293e:	bf00      	nop
    __DSB();
    __ISB();
    SCB->CCR |=  (uint32_t)SCB_CCR_IC_Msk;  /* enable I-Cache */
 8002940:	4b08      	ldr	r3, [pc, #32]	@ (8002964 <SCB_EnableICache+0x48>)
 8002942:	695b      	ldr	r3, [r3, #20]
 8002944:	4a07      	ldr	r2, [pc, #28]	@ (8002964 <SCB_EnableICache+0x48>)
 8002946:	f443 3300 	orr.w	r3, r3, #131072	@ 0x20000
 800294a:	6153      	str	r3, [r2, #20]
  __ASM volatile ("dsb 0xF":::"memory");
 800294c:	f3bf 8f4f 	dsb	sy
}
 8002950:	bf00      	nop
  __ASM volatile ("isb 0xF":::"memory");
 8002952:	f3bf 8f6f 	isb	sy
}
 8002956:	bf00      	nop
    __DSB();
    __ISB();
  #endif
}
 8002958:	bf00      	nop
 800295a:	46bd      	mov	sp, r7
 800295c:	f85d 7b04 	ldr.w	r7, [sp], #4
 8002960:	4770      	bx	lr
 8002962:	bf00      	nop
 8002964:	e000ed00 	.word	0xe000ed00

08002968 <SCB_EnableDCache>:
/**
  \brief   Enable D-Cache
  \details Turns on D-Cache
  */
__STATIC_INLINE void SCB_EnableDCache (void)
{
 8002968:	b480      	push	{r7}
 800296a:	b085      	sub	sp, #20
 800296c:	af00      	add	r7, sp, #0
  #if defined (__DCACHE_PRESENT) && (__DCACHE_PRESENT == 1U)
    uint32_t ccsidr;
    uint32_t sets;
    uint32_t ways;

    SCB->CSSELR = 0U; /*(0U << 1U) | 0U;*/  /* Level 1 data cache */
 800296e:	4b1f      	ldr	r3, [pc, #124]	@ (80029ec <SCB_EnableDCache+0x84>)
 8002970:	2200      	movs	r2, #0
 8002972:	f8c3 2084 	str.w	r2, [r3, #132]	@ 0x84
  __ASM volatile ("dsb 0xF":::"memory");
 8002976:	f3bf 8f4f 	dsb	sy
}
 800297a:	bf00      	nop
    __DSB();

    ccsidr = SCB->CCSIDR;
 800297c:	4b1b      	ldr	r3, [pc, #108]	@ (80029ec <SCB_EnableDCache+0x84>)
 800297e:	f8d3 3080 	ldr.w	r3, [r3, #128]	@ 0x80
 8002982:	607b      	str	r3, [r7, #4]

                                            /* invalidate D-Cache */
    sets = (uint32_t)(CCSIDR_SETS(ccsidr));
 8002984:	687b      	ldr	r3, [r7, #4]
 8002986:	0b5b      	lsrs	r3, r3, #13
 8002988:	f3c3 030e 	ubfx	r3, r3, #0, #15
 800298c:	60fb      	str	r3, [r7, #12]
    do {
      ways = (uint32_t)(CCSIDR_WAYS(ccsidr));
 800298e:	687b      	ldr	r3, [r7, #4]
 8002990:	08db      	lsrs	r3, r3, #3
 8002992:	f3c3 0309 	ubfx	r3, r3, #0, #10
 8002996:	60bb      	str	r3, [r7, #8]
      do {
        SCB->DCISW = (((sets << SCB_DCISW_SET_Pos) & SCB_DCISW_SET_Msk) |
 8002998:	68fb      	ldr	r3, [r7, #12]
 800299a:	015a      	lsls	r2, r3, #5
 800299c:	f643 73e0 	movw	r3, #16352	@ 0x3fe0
 80029a0:	4013      	ands	r3, r2
                      ((ways << SCB_DCISW_WAY_Pos) & SCB_DCISW_WAY_Msk)  );
 80029a2:	68ba      	ldr	r2, [r7, #8]
 80029a4:	0792      	lsls	r2, r2, #30
        SCB->DCISW = (((sets << SCB_DCISW_SET_Pos) & SCB_DCISW_SET_Msk) |
 80029a6:	4911      	ldr	r1, [pc, #68]	@ (80029ec <SCB_EnableDCache+0x84>)
 80029a8:	4313      	orrs	r3, r2
 80029aa:	f8c1 3260 	str.w	r3, [r1, #608]	@ 0x260
        #if defined ( __CC_ARM )
          __schedule_barrier();
        #endif
      } while (ways-- != 0U);
 80029ae:	68bb      	ldr	r3, [r7, #8]
 80029b0:	1e5a      	subs	r2, r3, #1
 80029b2:	60ba      	str	r2, [r7, #8]
 80029b4:	2b00      	cmp	r3, #0
 80029b6:	d1ef      	bne.n	8002998 <SCB_EnableDCache+0x30>
    } while(sets-- != 0U);
 80029b8:	68fb      	ldr	r3, [r7, #12]
 80029ba:	1e5a      	subs	r2, r3, #1
 80029bc:	60fa      	str	r2, [r7, #12]
 80029be:	2b00      	cmp	r3, #0
 80029c0:	d1e5      	bne.n	800298e <SCB_EnableDCache+0x26>
  __ASM volatile ("dsb 0xF":::"memory");
 80029c2:	f3bf 8f4f 	dsb	sy
}
 80029c6:	bf00      	nop
    __DSB();

    SCB->CCR |=  (uint32_t)SCB_CCR_DC_Msk;  /* enable D-Cache */
 80029c8:	4b08      	ldr	r3, [pc, #32]	@ (80029ec <SCB_EnableDCache+0x84>)
 80029ca:	695b      	ldr	r3, [r3, #20]
 80029cc:	4a07      	ldr	r2, [pc, #28]	@ (80029ec <SCB_EnableDCache+0x84>)
 80029ce:	f443 3380 	orr.w	r3, r3, #65536	@ 0x10000
 80029d2:	6153      	str	r3, [r2, #20]
  __ASM volatile ("dsb 0xF":::"memory");
 80029d4:	f3bf 8f4f 	dsb	sy
}
 80029d8:	bf00      	nop
  __ASM volatile ("isb 0xF":::"memory");
 80029da:	f3bf 8f6f 	isb	sy
}
 80029de:	bf00      	nop

    __DSB();
    __ISB();
  #endif
}
 80029e0:	bf00      	nop
 80029e2:	3714      	adds	r7, #20
 80029e4:	46bd      	mov	sp, r7
 80029e6:	f85d 7b04 	ldr.w	r7, [sp], #4
 80029ea:	4770      	bx	lr
 80029ec:	e000ed00 	.word	0xe000ed00

080029f0 <system_clock_pll_init>:
#include "system.h"

static inline void system_clock_pll_init(void)
{
 80029f0:	b480      	push	{r7}
 80029f2:	af00      	add	r7, sp, #0
	// 2) PLL을 끄고 PLL 설정값 초기화 (PLLM, PLLN, PLLP 등)
	// 3) PLL 파라미터 설정 (HSE → PLL 입력, 내부 VCO 구성)
	// 4) PLL을 다시 켜고 안정될 때까지 대기 (PLLRDY = 1)
	// 5) SYSCLK 소스를 PLL로 변경

    RCC->CR |= RCC_CR_HSEON | RCC_CR_HSION;
 80029f4:	4b19      	ldr	r3, [pc, #100]	@ (8002a5c <system_clock_pll_init+0x6c>)
 80029f6:	681b      	ldr	r3, [r3, #0]
 80029f8:	4a18      	ldr	r2, [pc, #96]	@ (8002a5c <system_clock_pll_init+0x6c>)
 80029fa:	f043 1301 	orr.w	r3, r3, #65537	@ 0x10001
 80029fe:	6013      	str	r3, [r2, #0]
    while(!(RCC->CR & RCC_CR_HSIRDY));    // HSI 안정화 대기
 8002a00:	bf00      	nop
 8002a02:	4b16      	ldr	r3, [pc, #88]	@ (8002a5c <system_clock_pll_init+0x6c>)
 8002a04:	681b      	ldr	r3, [r3, #0]
 8002a06:	f003 0302 	and.w	r3, r3, #2
 8002a0a:	2b00      	cmp	r3, #0
 8002a0c:	d0f9      	beq.n	8002a02 <system_clock_pll_init+0x12>

    RCC->CFGR &= ~RCC_CFGR_SW;            // 시스템 클록을 일단 HSI로 설정
 8002a0e:	4b13      	ldr	r3, [pc, #76]	@ (8002a5c <system_clock_pll_init+0x6c>)
 8002a10:	689b      	ldr	r3, [r3, #8]
 8002a12:	4a12      	ldr	r2, [pc, #72]	@ (8002a5c <system_clock_pll_init+0x6c>)
 8002a14:	f023 0303 	bic.w	r3, r3, #3
 8002a18:	6093      	str	r3, [r2, #8]
    while((RCC->CFGR & RCC_CFGR_SWS) != RCC_CFGR_SWS_HSI);
 8002a1a:	bf00      	nop
 8002a1c:	4b0f      	ldr	r3, [pc, #60]	@ (8002a5c <system_clock_pll_init+0x6c>)
 8002a1e:	689b      	ldr	r3, [r3, #8]
 8002a20:	f003 030c 	and.w	r3, r3, #12
 8002a24:	2b00      	cmp	r3, #0
 8002a26:	d1f9      	bne.n	8002a1c <system_clock_pll_init+0x2c>

    RCC->CR |= RCC_CR_HSEON | RCC_CR_HSION; // PLL OFF 상태 유지
 8002a28:	4b0c      	ldr	r3, [pc, #48]	@ (8002a5c <system_clock_pll_init+0x6c>)
 8002a2a:	681b      	ldr	r3, [r3, #0]
 8002a2c:	4a0b      	ldr	r2, [pc, #44]	@ (8002a5c <system_clock_pll_init+0x6c>)
 8002a2e:	f043 1301 	orr.w	r3, r3, #65537	@ 0x10001
 8002a32:	6013      	str	r3, [r2, #0]
    RCC->PLLCFGR = (9 << RCC_PLLCFGR_PLLQ_Pos) | RCC_PLLCFGR_PLLSRC_HSE | 
 8002a34:	4b09      	ldr	r3, [pc, #36]	@ (8002a5c <system_clock_pll_init+0x6c>)
 8002a36:	4a0a      	ldr	r2, [pc, #40]	@ (8002a60 <system_clock_pll_init+0x70>)
 8002a38:	605a      	str	r2, [r3, #4]
                   (0 << RCC_PLLCFGR_PLLP_Pos) | (216 << RCC_PLLCFGR_PLLN_Pos) | 8;

    RCC->CR = RCC_CR_PLLON | RCC_CR_HSEON | RCC_CR_HSION; // pll on
 8002a3a:	4b08      	ldr	r3, [pc, #32]	@ (8002a5c <system_clock_pll_init+0x6c>)
 8002a3c:	4a09      	ldr	r2, [pc, #36]	@ (8002a64 <system_clock_pll_init+0x74>)
 8002a3e:	601a      	str	r2, [r3, #0]
    while(!(RCC->CR & RCC_CR_PLLRDY));
 8002a40:	bf00      	nop
 8002a42:	4b06      	ldr	r3, [pc, #24]	@ (8002a5c <system_clock_pll_init+0x6c>)
 8002a44:	681b      	ldr	r3, [r3, #0]
 8002a46:	f003 7300 	and.w	r3, r3, #33554432	@ 0x2000000
 8002a4a:	2b00      	cmp	r3, #0
 8002a4c:	d0f9      	beq.n	8002a42 <system_clock_pll_init+0x52>
}
 8002a4e:	bf00      	nop
 8002a50:	bf00      	nop
 8002a52:	46bd      	mov	sp, r7
 8002a54:	f85d 7b04 	ldr.w	r7, [sp], #4
 8002a58:	4770      	bx	lr
 8002a5a:	bf00      	nop
 8002a5c:	40023800 	.word	0x40023800
 8002a60:	09403608 	.word	0x09403608
 8002a64:	01010001 	.word	0x01010001

08002a68 <system_clock_pll_init2>:

static inline void system_clock_pll_init2(void)
{
 8002a68:	b480      	push	{r7}
 8002a6a:	af00      	add	r7, sp, #0
    // 최종 클록 분주비 및 PLL 소스 전환
    RCC->CFGR = RCC_CFGR_PPRE2_DIV4 | RCC_CFGR_PPRE1_DIV4 | RCC_CFGR_HPRE_DIV1 | RCC_CFGR_SW_PLL;
 8002a6c:	4b0a      	ldr	r3, [pc, #40]	@ (8002a98 <system_clock_pll_init2+0x30>)
 8002a6e:	f24b 4202 	movw	r2, #46082	@ 0xb402
 8002a72:	609a      	str	r2, [r3, #8]

    // 타이머 클록 프리프레임 설정
    RCC->DCKCFGR1 = RCC_DCKCFGR1_TIMPRE;
 8002a74:	4b08      	ldr	r3, [pc, #32]	@ (8002a98 <system_clock_pll_init2+0x30>)
 8002a76:	f04f 7280 	mov.w	r2, #16777216	@ 0x1000000
 8002a7a:	f8c3 208c 	str.w	r2, [r3, #140]	@ 0x8c

    while((RCC->CFGR & RCC_CFGR_SWS) != RCC_CFGR_SWS_PLL); // 클럭소스 PLL 전환 대기
 8002a7e:	bf00      	nop
 8002a80:	4b05      	ldr	r3, [pc, #20]	@ (8002a98 <system_clock_pll_init2+0x30>)
 8002a82:	689b      	ldr	r3, [r3, #8]
 8002a84:	f003 030c 	and.w	r3, r3, #12
 8002a88:	2b08      	cmp	r3, #8
 8002a8a:	d1f9      	bne.n	8002a80 <system_clock_pll_init2+0x18>
}
 8002a8c:	bf00      	nop
 8002a8e:	bf00      	nop
 8002a90:	46bd      	mov	sp, r7
 8002a92:	f85d 7b04 	ldr.w	r7, [sp], #4
 8002a96:	4770      	bx	lr
 8002a98:	40023800 	.word	0x40023800

08002a9c <system_clock_periperals>:

static inline void system_clock_periperals(void)
{
 8002a9c:	b480      	push	{r7}
 8002a9e:	af00      	add	r7, sp, #0
    /* 1. AHB1 Bus: GPIOA~E (모든 IO 포트 일괄 활성화) */
    RCC->AHB1ENR |= (RCC_AHB1ENR_GPIOAEN | RCC_AHB1ENR_GPIOBEN | RCC_AHB1ENR_GPIOCEN | 
 8002aa0:	4b0b      	ldr	r3, [pc, #44]	@ (8002ad0 <system_clock_periperals+0x34>)
 8002aa2:	6b1b      	ldr	r3, [r3, #48]	@ 0x30
 8002aa4:	4a0a      	ldr	r2, [pc, #40]	@ (8002ad0 <system_clock_periperals+0x34>)
 8002aa6:	f043 031f 	orr.w	r3, r3, #31
 8002aaa:	6313      	str	r3, [r2, #48]	@ 0x30
        RCC_AHB1ENR_GPIODEN | RCC_AHB1ENR_GPIOEEN);

    /* 2. APB1 Bus: TIM2, DAC, USART2 */
    RCC->APB1ENR |= (RCC_APB1ENR_TIM2EN | RCC_APB1ENR_DACEN | RCC_APB1ENR_USART2EN);
 8002aac:	4b08      	ldr	r3, [pc, #32]	@ (8002ad0 <system_clock_periperals+0x34>)
 8002aae:	6c1a      	ldr	r2, [r3, #64]	@ 0x40
 8002ab0:	4907      	ldr	r1, [pc, #28]	@ (8002ad0 <system_clock_periperals+0x34>)
 8002ab2:	4b08      	ldr	r3, [pc, #32]	@ (8002ad4 <system_clock_periperals+0x38>)
 8002ab4:	4313      	orrs	r3, r2
 8002ab6:	640b      	str	r3, [r1, #64]	@ 0x40

    /* 3. APB2 Bus: TIM1, ADC1~3, SYSCFG */
    RCC->APB2ENR |= (RCC_APB2ENR_TIM1EN | RCC_APB2ENR_ADC1EN | RCC_APB2ENR_ADC2EN | 
 8002ab8:	4b05      	ldr	r3, [pc, #20]	@ (8002ad0 <system_clock_periperals+0x34>)
 8002aba:	6c5a      	ldr	r2, [r3, #68]	@ 0x44
 8002abc:	4904      	ldr	r1, [pc, #16]	@ (8002ad0 <system_clock_periperals+0x34>)
 8002abe:	f244 7301 	movw	r3, #18177	@ 0x4701
 8002ac2:	4313      	orrs	r3, r2
 8002ac4:	644b      	str	r3, [r1, #68]	@ 0x44
        RCC_APB2ENR_ADC3EN | RCC_APB2ENR_SYSCFGEN);
}
 8002ac6:	bf00      	nop
 8002ac8:	46bd      	mov	sp, r7
 8002aca:	f85d 7b04 	ldr.w	r7, [sp], #4
 8002ace:	4770      	bx	lr
 8002ad0:	40023800 	.word	0x40023800
 8002ad4:	20020001 	.word	0x20020001

08002ad8 <system_mcu_init>:

void system_mcu_init(void)
{
 8002ad8:	b580      	push	{r7, lr}
 8002ada:	af00      	add	r7, sp, #0
    /* 1. L1 캐시 활성화 (고속 실행) */
    SCB_EnableICache();
 8002adc:	f7ff ff1e 	bl	800291c <SCB_EnableICache>
    SCB_EnableDCache();
 8002ae0:	f7ff ff42 	bl	8002968 <SCB_EnableDCache>

    /* 2. Flash ACR 설정: 7 Wait States 적용 및 ART 가속기 활성화 */
    // FLASH_ACR_LATENCY_7WS (0x7), FLASH_ACR_ARTEN, FLASH_ACR_PRFTEN
    FLASH->ACR = FLASH_ACR_LATENCY_7WS | FLASH_ACR_ARTEN | FLASH_ACR_PRFTEN;
 8002ae4:	4b2a      	ldr	r3, [pc, #168]	@ (8002b90 <system_mcu_init+0xb8>)
 8002ae6:	f240 3207 	movw	r2, #775	@ 0x307
 8002aea:	601a      	str	r2, [r3, #0]

    /* 3. 시스템 클록 설정 (HSE 기반 216MHz) */
    RCC->CR |= RCC_CR_HSEON | RCC_CR_HSION;
 8002aec:	4b29      	ldr	r3, [pc, #164]	@ (8002b94 <system_mcu_init+0xbc>)
 8002aee:	681b      	ldr	r3, [r3, #0]
 8002af0:	4a28      	ldr	r2, [pc, #160]	@ (8002b94 <system_mcu_init+0xbc>)
 8002af2:	f043 1301 	orr.w	r3, r3, #65537	@ 0x10001
 8002af6:	6013      	str	r3, [r2, #0]
    while(!(RCC->CR & RCC_CR_HSIRDY));    // HSI 안정화 대기
 8002af8:	bf00      	nop
 8002afa:	4b26      	ldr	r3, [pc, #152]	@ (8002b94 <system_mcu_init+0xbc>)
 8002afc:	681b      	ldr	r3, [r3, #0]
 8002afe:	f003 0302 	and.w	r3, r3, #2
 8002b02:	2b00      	cmp	r3, #0
 8002b04:	d0f9      	beq.n	8002afa <system_mcu_init+0x22>

    RCC->CFGR &= ~RCC_CFGR_SW;            // 시스템 클록을 일단 HSI로 설정
 8002b06:	4b23      	ldr	r3, [pc, #140]	@ (8002b94 <system_mcu_init+0xbc>)
 8002b08:	689b      	ldr	r3, [r3, #8]
 8002b0a:	4a22      	ldr	r2, [pc, #136]	@ (8002b94 <system_mcu_init+0xbc>)
 8002b0c:	f023 0303 	bic.w	r3, r3, #3
 8002b10:	6093      	str	r3, [r2, #8]
    while((RCC->CFGR & RCC_CFGR_SWS) != RCC_CFGR_SWS_HSI);
 8002b12:	bf00      	nop
 8002b14:	4b1f      	ldr	r3, [pc, #124]	@ (8002b94 <system_mcu_init+0xbc>)
 8002b16:	689b      	ldr	r3, [r3, #8]
 8002b18:	f003 030c 	and.w	r3, r3, #12
 8002b1c:	2b00      	cmp	r3, #0
 8002b1e:	d1f9      	bne.n	8002b14 <system_mcu_init+0x3c>

    /* 4. HSE 설정 및 PLL 설정 */
    system_clock_pll_init();
 8002b20:	f7ff ff66 	bl	80029f0 <system_clock_pll_init>

    /* 5. 오버드라이브 설정 -> 216MHz 진입 전 전압 강화 */
    RCC->APB1ENR |= RCC_APB1ENR_PWREN;
 8002b24:	4b1b      	ldr	r3, [pc, #108]	@ (8002b94 <system_mcu_init+0xbc>)
 8002b26:	6c1b      	ldr	r3, [r3, #64]	@ 0x40
 8002b28:	4a1a      	ldr	r2, [pc, #104]	@ (8002b94 <system_mcu_init+0xbc>)
 8002b2a:	f043 5380 	orr.w	r3, r3, #268435456	@ 0x10000000
 8002b2e:	6413      	str	r3, [r2, #64]	@ 0x40
    PWR->CR1 |= PWR_CR1_ODEN;
 8002b30:	4b19      	ldr	r3, [pc, #100]	@ (8002b98 <system_mcu_init+0xc0>)
 8002b32:	681b      	ldr	r3, [r3, #0]
 8002b34:	4a18      	ldr	r2, [pc, #96]	@ (8002b98 <system_mcu_init+0xc0>)
 8002b36:	f443 3380 	orr.w	r3, r3, #65536	@ 0x10000
 8002b3a:	6013      	str	r3, [r2, #0]
    while(!(PWR->CSR1 & PWR_CSR1_ODRDY));
 8002b3c:	bf00      	nop
 8002b3e:	4b16      	ldr	r3, [pc, #88]	@ (8002b98 <system_mcu_init+0xc0>)
 8002b40:	685b      	ldr	r3, [r3, #4]
 8002b42:	f403 3380 	and.w	r3, r3, #65536	@ 0x10000
 8002b46:	2b00      	cmp	r3, #0
 8002b48:	d0f9      	beq.n	8002b3e <system_mcu_init+0x66>
    
    PWR->CR1 |= PWR_CR1_ODSWEN;
 8002b4a:	4b13      	ldr	r3, [pc, #76]	@ (8002b98 <system_mcu_init+0xc0>)
 8002b4c:	681b      	ldr	r3, [r3, #0]
 8002b4e:	4a12      	ldr	r2, [pc, #72]	@ (8002b98 <system_mcu_init+0xc0>)
 8002b50:	f443 3300 	orr.w	r3, r3, #131072	@ 0x20000
 8002b54:	6013      	str	r3, [r2, #0]
    while(!(PWR->CSR1 & PWR_CSR1_ODSWRDY));
 8002b56:	bf00      	nop
 8002b58:	4b0f      	ldr	r3, [pc, #60]	@ (8002b98 <system_mcu_init+0xc0>)
 8002b5a:	685b      	ldr	r3, [r3, #4]
 8002b5c:	f403 3300 	and.w	r3, r3, #131072	@ 0x20000
 8002b60:	2b00      	cmp	r3, #0
 8002b62:	d0f9      	beq.n	8002b58 <system_mcu_init+0x80>

    /* 6. 최종 클록 분주비 및 PLL로 클럭소스 전환 */
    system_clock_pll_init2();
 8002b64:	f7ff ff80 	bl	8002a68 <system_clock_pll_init2>

    /* 7. CSS 활성화 */
    RCC->CR |= RCC_CR_CSSON;
 8002b68:	4b0a      	ldr	r3, [pc, #40]	@ (8002b94 <system_mcu_init+0xbc>)
 8002b6a:	681b      	ldr	r3, [r3, #0]
 8002b6c:	4a09      	ldr	r2, [pc, #36]	@ (8002b94 <system_mcu_init+0xbc>)
 8002b6e:	f443 2300 	orr.w	r3, r3, #524288	@ 0x80000
 8002b72:	6013      	str	r3, [r2, #0]

    /* 8. I/O 보상 및 주변장치 클록 활성화 */
    RCC->APB2ENR |= RCC_APB2ENR_SYSCFGEN;
 8002b74:	4b07      	ldr	r3, [pc, #28]	@ (8002b94 <system_mcu_init+0xbc>)
 8002b76:	6c5b      	ldr	r3, [r3, #68]	@ 0x44
 8002b78:	4a06      	ldr	r2, [pc, #24]	@ (8002b94 <system_mcu_init+0xbc>)
 8002b7a:	f443 4380 	orr.w	r3, r3, #16384	@ 0x4000
 8002b7e:	6453      	str	r3, [r2, #68]	@ 0x44
    SYSCFG->CMPCR = SYSCFG_CMPCR_CMP_PD;
 8002b80:	4b06      	ldr	r3, [pc, #24]	@ (8002b9c <system_mcu_init+0xc4>)
 8002b82:	2201      	movs	r2, #1
 8002b84:	621a      	str	r2, [r3, #32]

    system_clock_periperals();
 8002b86:	f7ff ff89 	bl	8002a9c <system_clock_periperals>
}
 8002b8a:	bf00      	nop
 8002b8c:	bd80      	pop	{r7, pc}
 8002b8e:	bf00      	nop
 8002b90:	40023c00 	.word	0x40023c00
 8002b94:	40023800 	.word	0x40023800
 8002b98:	40007000 	.word	0x40007000
 8002b9c:	40013800 	.word	0x40013800

08002ba0 <system_sysTick_init>:

void system_sysTick_init(void)
{
 8002ba0:	b480      	push	{r7}
 8002ba2:	af00      	add	r7, sp, #0
    // SYSCLK가 216MHz일 때, 1ms마다 인터럽트가 발생하도록 설정:
    // Reload = (216,000,000 / 1000) - 1 = 215999
    SysTick->LOAD = (216000000 / 1000) - 1;
 8002ba4:	4b06      	ldr	r3, [pc, #24]	@ (8002bc0 <system_sysTick_init+0x20>)
 8002ba6:	4a07      	ldr	r2, [pc, #28]	@ (8002bc4 <system_sysTick_init+0x24>)
 8002ba8:	605a      	str	r2, [r3, #4]
    SysTick->VAL  = 0;  // 현재 카운터 값 초기화
 8002baa:	4b05      	ldr	r3, [pc, #20]	@ (8002bc0 <system_sysTick_init+0x20>)
 8002bac:	2200      	movs	r2, #0
 8002bae:	609a      	str	r2, [r3, #8]
    // SysTick 제어: 프로세서 클록(216MHz) 사용, 인터럽트 활성, 카운터 시작
    SysTick->CTRL = SysTick_CTRL_CLKSOURCE_Msk | SysTick_CTRL_TICKINT_Msk | SysTick_CTRL_ENABLE_Msk;
 8002bb0:	4b03      	ldr	r3, [pc, #12]	@ (8002bc0 <system_sysTick_init+0x20>)
 8002bb2:	2207      	movs	r2, #7
 8002bb4:	601a      	str	r2, [r3, #0]
 8002bb6:	bf00      	nop
 8002bb8:	46bd      	mov	sp, r7
 8002bba:	f85d 7b04 	ldr.w	r7, [sp], #4
 8002bbe:	4770      	bx	lr
 8002bc0:	e000e010 	.word	0xe000e010
 8002bc4:	00034bbf 	.word	0x00034bbf

08002bc8 <SystemInit>:
  *         SystemFrequency variable.
  * @param  None
  * @retval None
  */
void SystemInit(void)
{
 8002bc8:	b480      	push	{r7}
 8002bca:	af00      	add	r7, sp, #0
  /* FPU settings ------------------------------------------------------------*/
#if (__FPU_PRESENT == 1) && (__FPU_USED == 1)
  SCB->CPACR |= ((3UL << 10*2)|(3UL << 11*2));  /* set CP10 and CP11 Full Access */
 8002bcc:	4b06      	ldr	r3, [pc, #24]	@ (8002be8 <SystemInit+0x20>)
 8002bce:	f8d3 3088 	ldr.w	r3, [r3, #136]	@ 0x88
 8002bd2:	4a05      	ldr	r2, [pc, #20]	@ (8002be8 <SystemInit+0x20>)
 8002bd4:	f443 0370 	orr.w	r3, r3, #15728640	@ 0xf00000
 8002bd8:	f8c2 3088 	str.w	r3, [r2, #136]	@ 0x88

  /* Configure the Vector Table location -------------------------------------*/
#if defined(USER_VECT_TAB_ADDRESS)
  SCB->VTOR = VECT_TAB_BASE_ADDRESS | VECT_TAB_OFFSET; /* Vector Table Relocation in Internal SRAM */
#endif /* USER_VECT_TAB_ADDRESS */
}
 8002bdc:	bf00      	nop
 8002bde:	46bd      	mov	sp, r7
 8002be0:	f85d 7b04 	ldr.w	r7, [sp], #4
 8002be4:	4770      	bx	lr
 8002be6:	bf00      	nop
 8002be8:	e000ed00 	.word	0xe000ed00

08002bec <__NVIC_EnableIRQ>:
{
 8002bec:	b480      	push	{r7}
 8002bee:	b083      	sub	sp, #12
 8002bf0:	af00      	add	r7, sp, #0
 8002bf2:	4603      	mov	r3, r0
 8002bf4:	71fb      	strb	r3, [r7, #7]
  if ((int32_t)(IRQn) >= 0)
 8002bf6:	f997 3007 	ldrsb.w	r3, [r7, #7]
 8002bfa:	2b00      	cmp	r3, #0
 8002bfc:	db0b      	blt.n	8002c16 <__NVIC_EnableIRQ+0x2a>
    NVIC->ISER[(((uint32_t)IRQn) >> 5UL)] = (uint32_t)(1UL << (((uint32_t)IRQn) & 0x1FUL));
 8002bfe:	79fb      	ldrb	r3, [r7, #7]
 8002c00:	f003 021f 	and.w	r2, r3, #31
 8002c04:	4907      	ldr	r1, [pc, #28]	@ (8002c24 <__NVIC_EnableIRQ+0x38>)
 8002c06:	f997 3007 	ldrsb.w	r3, [r7, #7]
 8002c0a:	095b      	lsrs	r3, r3, #5
 8002c0c:	2001      	movs	r0, #1
 8002c0e:	fa00 f202 	lsl.w	r2, r0, r2
 8002c12:	f841 2023 	str.w	r2, [r1, r3, lsl #2]
}
 8002c16:	bf00      	nop
 8002c18:	370c      	adds	r7, #12
 8002c1a:	46bd      	mov	sp, r7
 8002c1c:	f85d 7b04 	ldr.w	r7, [sp], #4
 8002c20:	4770      	bx	lr
 8002c22:	bf00      	nop
 8002c24:	e000e100 	.word	0xe000e100

08002c28 <tim_tim2_init>:

typPwm_handle vPwm1_handler;
typTim_handle vTim2_handler;

static void tim_tim2_init(void)
{
 8002c28:	b480      	push	{r7}
 8002c2a:	af00      	add	r7, sp, #0
    vTim2_handler.inst = TIM2;
 8002c2c:	4b13      	ldr	r3, [pc, #76]	@ (8002c7c <tim_tim2_init+0x54>)
 8002c2e:	f04f 4280 	mov.w	r2, #1073741824	@ 0x40000000
 8002c32:	601a      	str	r2, [r3, #0]

    vTim2_handler.inst->PSC = TIM2_PRESCALSER_CNT;
 8002c34:	4b11      	ldr	r3, [pc, #68]	@ (8002c7c <tim_tim2_init+0x54>)
 8002c36:	681b      	ldr	r3, [r3, #0]
 8002c38:	2203      	movs	r2, #3
 8002c3a:	629a      	str	r2, [r3, #40]	@ 0x28
    vTim2_handler.inst->ARR = TIM2_PERIOD_TICK;
 8002c3c:	4b0f      	ldr	r3, [pc, #60]	@ (8002c7c <tim_tim2_init+0x54>)
 8002c3e:	681b      	ldr	r3, [r3, #0]
 8002c40:	4a0f      	ldr	r2, [pc, #60]	@ (8002c80 <tim_tim2_init+0x58>)
 8002c42:	62da      	str	r2, [r3, #44]	@ 0x2c
    vTim2_handler.inst->CNT = TIM2_INIT_CNT_VAL;
 8002c44:	4b0d      	ldr	r3, [pc, #52]	@ (8002c7c <tim_tim2_init+0x54>)
 8002c46:	681b      	ldr	r3, [r3, #0]
 8002c48:	2200      	movs	r2, #0
 8002c4a:	625a      	str	r2, [r3, #36]	@ 0x24

    vTim2_handler.inst->CR1 = TIM_CR1_CEN;
 8002c4c:	4b0b      	ldr	r3, [pc, #44]	@ (8002c7c <tim_tim2_init+0x54>)
 8002c4e:	681b      	ldr	r3, [r3, #0]
 8002c50:	2201      	movs	r2, #1
 8002c52:	601a      	str	r2, [r3, #0]

    vTim2_handler.is_running = TIM_DET_RUNNING_FLAG(vTim2_handler.inst->CR1);
 8002c54:	4b09      	ldr	r3, [pc, #36]	@ (8002c7c <tim_tim2_init+0x54>)
 8002c56:	681b      	ldr	r3, [r3, #0]
 8002c58:	681b      	ldr	r3, [r3, #0]
 8002c5a:	f003 0301 	and.w	r3, r3, #1
 8002c5e:	2b01      	cmp	r3, #1
 8002c60:	bf0c      	ite	eq
 8002c62:	2301      	moveq	r3, #1
 8002c64:	2300      	movne	r3, #0
 8002c66:	b2da      	uxtb	r2, r3
 8002c68:	4b04      	ldr	r3, [pc, #16]	@ (8002c7c <tim_tim2_init+0x54>)
 8002c6a:	711a      	strb	r2, [r3, #4]
    vTim2_handler.is_initialized = true;
 8002c6c:	4b03      	ldr	r3, [pc, #12]	@ (8002c7c <tim_tim2_init+0x54>)
 8002c6e:	2201      	movs	r2, #1
 8002c70:	715a      	strb	r2, [r3, #5]
}
 8002c72:	bf00      	nop
 8002c74:	46bd      	mov	sp, r7
 8002c76:	f85d 7b04 	ldr.w	r7, [sp], #4
 8002c7a:	4770      	bx	lr
 8002c7c:	200002a4 	.word	0x200002a4
 8002c80:	0337f97f 	.word	0x0337f97f

08002c84 <tim_pwm1_init>:

static void tim_pwm1_init(void)
{
 8002c84:	b580      	push	{r7, lr}
 8002c86:	af00      	add	r7, sp, #0
    // 1. PWM 채널 핀 설정
    gpio_set_alterFunc(PWM_U_TOP_Port, 9, 1, GPIO_SPD_VERY_HIGH);
 8002c88:	2303      	movs	r3, #3
 8002c8a:	2201      	movs	r2, #1
 8002c8c:	2109      	movs	r1, #9
 8002c8e:	4847      	ldr	r0, [pc, #284]	@ (8002dac <tim_pwm1_init+0x128>)
 8002c90:	f7ff f8ef 	bl	8001e72 <gpio_set_alterFunc>
    gpio_set_alterFunc(PWM_U_BOT_Port, 8, 1, GPIO_SPD_VERY_HIGH);
 8002c94:	2303      	movs	r3, #3
 8002c96:	2201      	movs	r2, #1
 8002c98:	2108      	movs	r1, #8
 8002c9a:	4844      	ldr	r0, [pc, #272]	@ (8002dac <tim_pwm1_init+0x128>)
 8002c9c:	f7ff f8e9 	bl	8001e72 <gpio_set_alterFunc>

    gpio_set_alterFunc(PWM_V_TOP_Port, 11, 1, GPIO_SPD_VERY_HIGH);
 8002ca0:	2303      	movs	r3, #3
 8002ca2:	2201      	movs	r2, #1
 8002ca4:	210b      	movs	r1, #11
 8002ca6:	4841      	ldr	r0, [pc, #260]	@ (8002dac <tim_pwm1_init+0x128>)
 8002ca8:	f7ff f8e3 	bl	8001e72 <gpio_set_alterFunc>
    gpio_set_alterFunc(PWM_V_BOT_Port, 10, 1, GPIO_SPD_VERY_HIGH);
 8002cac:	2303      	movs	r3, #3
 8002cae:	2201      	movs	r2, #1
 8002cb0:	210a      	movs	r1, #10
 8002cb2:	483e      	ldr	r0, [pc, #248]	@ (8002dac <tim_pwm1_init+0x128>)
 8002cb4:	f7ff f8dd 	bl	8001e72 <gpio_set_alterFunc>

    gpio_set_alterFunc(PWM_W_TOP_Port, 13, 1, GPIO_SPD_VERY_HIGH);
 8002cb8:	2303      	movs	r3, #3
 8002cba:	2201      	movs	r2, #1
 8002cbc:	210d      	movs	r1, #13
 8002cbe:	483b      	ldr	r0, [pc, #236]	@ (8002dac <tim_pwm1_init+0x128>)
 8002cc0:	f7ff f8d7 	bl	8001e72 <gpio_set_alterFunc>
    gpio_set_alterFunc(PWM_W_BOT_Port, 12, 1, GPIO_SPD_VERY_HIGH);
 8002cc4:	2303      	movs	r3, #3
 8002cc6:	2201      	movs	r2, #1
 8002cc8:	210c      	movs	r1, #12
 8002cca:	4838      	ldr	r0, [pc, #224]	@ (8002dac <tim_pwm1_init+0x128>)
 8002ccc:	f7ff f8d1 	bl	8001e72 <gpio_set_alterFunc>

    // 2. 타이머 주기 설정
    vPwm1_handler.inst = TIM1;
 8002cd0:	4b37      	ldr	r3, [pc, #220]	@ (8002db0 <tim_pwm1_init+0x12c>)
 8002cd2:	4a38      	ldr	r2, [pc, #224]	@ (8002db4 <tim_pwm1_init+0x130>)
 8002cd4:	601a      	str	r2, [r3, #0]
    vPwm1_handler.inst->PSC = PWM1_PRESCALER_CNT; // 216MHz/(0+1) = 216MHz
 8002cd6:	4b36      	ldr	r3, [pc, #216]	@ (8002db0 <tim_pwm1_init+0x12c>)
 8002cd8:	681b      	ldr	r3, [r3, #0]
 8002cda:	2200      	movs	r2, #0
 8002cdc:	629a      	str	r2, [r3, #40]	@ 0x28
    vPwm1_handler.inst->ARR = PWM1_PERIOD_TICK;   // 216MHz/CNT_MAX/2 = 20kHz -> center allign
 8002cde:	4b34      	ldr	r3, [pc, #208]	@ (8002db0 <tim_pwm1_init+0x12c>)
 8002ce0:	681b      	ldr	r3, [r3, #0]
 8002ce2:	f241 5217 	movw	r2, #5399	@ 0x1517
 8002ce6:	62da      	str	r2, [r3, #44]	@ 0x2c
    
    // 3. PWM 모드2 설정 및 프리로드 기능 활성화
    vPwm1_handler.inst->CCMR1 &= (~TIM_CCMR1_CC1S_Msk); // PWM 출력모드로사용
 8002ce8:	4b31      	ldr	r3, [pc, #196]	@ (8002db0 <tim_pwm1_init+0x12c>)
 8002cea:	681b      	ldr	r3, [r3, #0]
 8002cec:	699a      	ldr	r2, [r3, #24]
 8002cee:	4b30      	ldr	r3, [pc, #192]	@ (8002db0 <tim_pwm1_init+0x12c>)
 8002cf0:	681b      	ldr	r3, [r3, #0]
 8002cf2:	f022 0203 	bic.w	r2, r2, #3
 8002cf6:	619a      	str	r2, [r3, #24]
    vPwm1_handler.inst->CCMR1 |= TIM_CCMR1_OC1PE | TIM_CCMR1_OC1M_0 | TIM_CCMR1_OC1M_1 | TIM_CCMR1_OC1M_2 ;
 8002cf8:	4b2d      	ldr	r3, [pc, #180]	@ (8002db0 <tim_pwm1_init+0x12c>)
 8002cfa:	681b      	ldr	r3, [r3, #0]
 8002cfc:	699a      	ldr	r2, [r3, #24]
 8002cfe:	4b2c      	ldr	r3, [pc, #176]	@ (8002db0 <tim_pwm1_init+0x12c>)
 8002d00:	681b      	ldr	r3, [r3, #0]
 8002d02:	f042 0278 	orr.w	r2, r2, #120	@ 0x78
 8002d06:	619a      	str	r2, [r3, #24]
    vPwm1_handler.inst->CCMR1 &= (~TIM_CCMR1_CC2S_Msk);
 8002d08:	4b29      	ldr	r3, [pc, #164]	@ (8002db0 <tim_pwm1_init+0x12c>)
 8002d0a:	681b      	ldr	r3, [r3, #0]
 8002d0c:	699a      	ldr	r2, [r3, #24]
 8002d0e:	4b28      	ldr	r3, [pc, #160]	@ (8002db0 <tim_pwm1_init+0x12c>)
 8002d10:	681b      	ldr	r3, [r3, #0]
 8002d12:	f422 7240 	bic.w	r2, r2, #768	@ 0x300
 8002d16:	619a      	str	r2, [r3, #24]
    vPwm1_handler.inst->CCMR1 |= TIM_CCMR1_OC2PE | TIM_CCMR1_OC2M_0 | TIM_CCMR1_OC2M_1 | TIM_CCMR1_OC2M_2;
 8002d18:	4b25      	ldr	r3, [pc, #148]	@ (8002db0 <tim_pwm1_init+0x12c>)
 8002d1a:	681b      	ldr	r3, [r3, #0]
 8002d1c:	699a      	ldr	r2, [r3, #24]
 8002d1e:	4b24      	ldr	r3, [pc, #144]	@ (8002db0 <tim_pwm1_init+0x12c>)
 8002d20:	681b      	ldr	r3, [r3, #0]
 8002d22:	f442 42f0 	orr.w	r2, r2, #30720	@ 0x7800
 8002d26:	619a      	str	r2, [r3, #24]
    vPwm1_handler.inst->CCMR2 &= (~TIM_CCMR2_CC3S_Msk);
 8002d28:	4b21      	ldr	r3, [pc, #132]	@ (8002db0 <tim_pwm1_init+0x12c>)
 8002d2a:	681b      	ldr	r3, [r3, #0]
 8002d2c:	69da      	ldr	r2, [r3, #28]
 8002d2e:	4b20      	ldr	r3, [pc, #128]	@ (8002db0 <tim_pwm1_init+0x12c>)
 8002d30:	681b      	ldr	r3, [r3, #0]
 8002d32:	f022 0203 	bic.w	r2, r2, #3
 8002d36:	61da      	str	r2, [r3, #28]
    vPwm1_handler.inst->CCMR2 |= TIM_CCMR2_OC3PE | TIM_CCMR2_OC3M_0 | TIM_CCMR2_OC3M_1 | TIM_CCMR2_OC3M_2 ;
 8002d38:	4b1d      	ldr	r3, [pc, #116]	@ (8002db0 <tim_pwm1_init+0x12c>)
 8002d3a:	681b      	ldr	r3, [r3, #0]
 8002d3c:	69da      	ldr	r2, [r3, #28]
 8002d3e:	4b1c      	ldr	r3, [pc, #112]	@ (8002db0 <tim_pwm1_init+0x12c>)
 8002d40:	681b      	ldr	r3, [r3, #0]
 8002d42:	f042 0278 	orr.w	r2, r2, #120	@ 0x78
 8002d46:	61da      	str	r2, [r3, #28]

    // 4. 데드타임 설정
    vPwm1_handler.inst->BDTR = TIM_BDTR_OSSI | TIM_BDTR_OSSR | TIM_BDTR_MOE;
 8002d48:	4b19      	ldr	r3, [pc, #100]	@ (8002db0 <tim_pwm1_init+0x12c>)
 8002d4a:	681b      	ldr	r3, [r3, #0]
 8002d4c:	f44f 420c 	mov.w	r2, #35840	@ 0x8c00
 8002d50:	645a      	str	r2, [r3, #68]	@ 0x44
    vPwm1_handler.inst->BDTR |= PWM1_DEADTIME_1US_BIT;
 8002d52:	4b17      	ldr	r3, [pc, #92]	@ (8002db0 <tim_pwm1_init+0x12c>)
 8002d54:	681b      	ldr	r3, [r3, #0]
 8002d56:	6c5a      	ldr	r2, [r3, #68]	@ 0x44
 8002d58:	4b15      	ldr	r3, [pc, #84]	@ (8002db0 <tim_pwm1_init+0x12c>)
 8002d5a:	681b      	ldr	r3, [r3, #0]
 8002d5c:	f042 02b4 	orr.w	r2, r2, #180	@ 0xb4
 8002d60:	645a      	str	r2, [r3, #68]	@ 0x44

    // 5. 카운터 세팅 및 카운트 시작
    vPwm1_handler.inst->CR2 = TIM_CR2_MMS_1; // 안정적인 전류센싱을 위해 CNT의 한주기가 끝나면 ADC에 신호를 보냄
 8002d62:	4b13      	ldr	r3, [pc, #76]	@ (8002db0 <tim_pwm1_init+0x12c>)
 8002d64:	681b      	ldr	r3, [r3, #0]
 8002d66:	2220      	movs	r2, #32
 8002d68:	605a      	str	r2, [r3, #4]
    vPwm1_handler.inst->CR1 = TIM_CR1_CEN | TIM_CR1_CMS_0 | TIM_CR1_CMS_1 | TIM_CR1_URS;
 8002d6a:	4b11      	ldr	r3, [pc, #68]	@ (8002db0 <tim_pwm1_init+0x12c>)
 8002d6c:	681b      	ldr	r3, [r3, #0]
 8002d6e:	2265      	movs	r2, #101	@ 0x65
 8002d70:	601a      	str	r2, [r3, #0]
    // 센터 얼리인 모드 확정(카운터가 증가->감소가 완벽히 이루어져야 intrpt 실행) + 카운트 시작 + CCR 업데이트 시점 (글리칭현상) = update 인터럽트 발생시점

    // 6. 나머지 객체 멤버 설정
    vPwm1_handler.is_running = TIM_DET_RUNNING_FLAG(vPwm1_handler.inst->CR1);
 8002d72:	4b0f      	ldr	r3, [pc, #60]	@ (8002db0 <tim_pwm1_init+0x12c>)
 8002d74:	681b      	ldr	r3, [r3, #0]
 8002d76:	681b      	ldr	r3, [r3, #0]
 8002d78:	f003 0301 	and.w	r3, r3, #1
 8002d7c:	2b01      	cmp	r3, #1
 8002d7e:	bf0c      	ite	eq
 8002d80:	2301      	moveq	r3, #1
 8002d82:	2300      	movne	r3, #0
 8002d84:	b2da      	uxtb	r2, r3
 8002d86:	4b0a      	ldr	r3, [pc, #40]	@ (8002db0 <tim_pwm1_init+0x12c>)
 8002d88:	711a      	strb	r2, [r3, #4]
    vPwm1_handler.is_outputing = TIM_DET_OUTPUT_FLAG(vPwm1_handler.inst->BDTR);
 8002d8a:	4b09      	ldr	r3, [pc, #36]	@ (8002db0 <tim_pwm1_init+0x12c>)
 8002d8c:	681b      	ldr	r3, [r3, #0]
 8002d8e:	6c5b      	ldr	r3, [r3, #68]	@ 0x44
 8002d90:	f403 4300 	and.w	r3, r3, #32768	@ 0x8000
 8002d94:	2b01      	cmp	r3, #1
 8002d96:	bf0c      	ite	eq
 8002d98:	2301      	moveq	r3, #1
 8002d9a:	2300      	movne	r3, #0
 8002d9c:	b2da      	uxtb	r2, r3
 8002d9e:	4b04      	ldr	r3, [pc, #16]	@ (8002db0 <tim_pwm1_init+0x12c>)
 8002da0:	715a      	strb	r2, [r3, #5]
    vPwm1_handler.is_initialized = true;
 8002da2:	4b03      	ldr	r3, [pc, #12]	@ (8002db0 <tim_pwm1_init+0x12c>)
 8002da4:	2201      	movs	r2, #1
 8002da6:	719a      	strb	r2, [r3, #6]
}
 8002da8:	bf00      	nop
 8002daa:	bd80      	pop	{r7, pc}
 8002dac:	40021000 	.word	0x40021000
 8002db0:	20000290 	.word	0x20000290
 8002db4:	40010000 	.word	0x40010000

08002db8 <tim_pwm1_nvic_counterSet>:

void tim_pwm1_nvic_counterSet(void)
{
 8002db8:	b580      	push	{r7, lr}
 8002dba:	af00      	add	r7, sp, #0
    vPwm1_handler.inst->DIER = TIM_DIER_UIE; // 업데이트 인터럽트 사용
 8002dbc:	4b0a      	ldr	r3, [pc, #40]	@ (8002de8 <tim_pwm1_nvic_counterSet+0x30>)
 8002dbe:	681b      	ldr	r3, [r3, #0]
 8002dc0:	2201      	movs	r2, #1
 8002dc2:	60da      	str	r2, [r3, #12]

    NVIC_EnableIRQ(TIM1_UP_TIM10_IRQn);
 8002dc4:	2019      	movs	r0, #25
 8002dc6:	f7ff ff11 	bl	8002bec <__NVIC_EnableIRQ>

    while((vPwm1_handler.inst->CR1 & TIM_CR1_DIR) == 0); // 업카운팅 -> 다운카운팅 까지 대기(싱크맞추기용)
 8002dca:	bf00      	nop
 8002dcc:	4b06      	ldr	r3, [pc, #24]	@ (8002de8 <tim_pwm1_nvic_counterSet+0x30>)
 8002dce:	681b      	ldr	r3, [r3, #0]
 8002dd0:	681b      	ldr	r3, [r3, #0]
 8002dd2:	f003 0310 	and.w	r3, r3, #16
 8002dd6:	2b00      	cmp	r3, #0
 8002dd8:	d0f8      	beq.n	8002dcc <tim_pwm1_nvic_counterSet+0x14>

    vPwm1_handler.inst->RCR = 0x01;  // 센터 얼라인이기 때문에, 업카운팅->다운카운팅 해야 업데이트 인터럽트 발생
 8002dda:	4b03      	ldr	r3, [pc, #12]	@ (8002de8 <tim_pwm1_nvic_counterSet+0x30>)
 8002ddc:	681b      	ldr	r3, [r3, #0]
 8002dde:	2201      	movs	r2, #1
 8002de0:	631a      	str	r2, [r3, #48]	@ 0x30
}
 8002de2:	bf00      	nop
 8002de4:	bd80      	pop	{r7, pc}
 8002de6:	bf00      	nop
 8002de8:	20000290 	.word	0x20000290

08002dec <tim_init>:

void tim_init(void)
{
 8002dec:	b580      	push	{r7, lr}
 8002dee:	af00      	add	r7, sp, #0
    tim_pwm1_init();
 8002df0:	f7ff ff48 	bl	8002c84 <tim_pwm1_init>
    tim_tim2_init();
 8002df4:	f7ff ff18 	bl	8002c28 <tim_tim2_init>

    tim_Pwm1_Mute_channel(TIM_SELECT_OUTPUT_FLG);
 8002df8:	2000      	movs	r0, #0
 8002dfa:	f000 f80b 	bl	8002e14 <tim_Pwm1_Mute_channel>
    tim_Pwm1_Mute_channel(TIM_SELECT_U_LINE);
 8002dfe:	2001      	movs	r0, #1
 8002e00:	f000 f808 	bl	8002e14 <tim_Pwm1_Mute_channel>
    tim_Pwm1_Mute_channel(TIM_SELECT_V_LINE);
 8002e04:	2002      	movs	r0, #2
 8002e06:	f000 f805 	bl	8002e14 <tim_Pwm1_Mute_channel>
    tim_Pwm1_Mute_channel(TIM_SELECT_W_LINE);
 8002e0a:	2003      	movs	r0, #3
 8002e0c:	f000 f802 	bl	8002e14 <tim_Pwm1_Mute_channel>
}
 8002e10:	bf00      	nop
 8002e12:	bd80      	pop	{r7, pc}

08002e14 <tim_Pwm1_Mute_channel>:

void tim_Pwm1_Mute_channel(typTim_sigLineNum chNum)
{
 8002e14:	b480      	push	{r7}
 8002e16:	b083      	sub	sp, #12
 8002e18:	af00      	add	r7, sp, #0
 8002e1a:	4603      	mov	r3, r0
 8002e1c:	71fb      	strb	r3, [r7, #7]
    switch(chNum)
 8002e1e:	79fb      	ldrb	r3, [r7, #7]
 8002e20:	2b03      	cmp	r3, #3
 8002e22:	d853      	bhi.n	8002ecc <tim_Pwm1_Mute_channel+0xb8>
 8002e24:	a201      	add	r2, pc, #4	@ (adr r2, 8002e2c <tim_Pwm1_Mute_channel+0x18>)
 8002e26:	f852 f023 	ldr.w	pc, [r2, r3, lsl #2]
 8002e2a:	bf00      	nop
 8002e2c:	08002e3d 	.word	0x08002e3d
 8002e30:	08002e7f 	.word	0x08002e7f
 8002e34:	08002e99 	.word	0x08002e99
 8002e38:	08002eb3 	.word	0x08002eb3
    {
        case TIM_SELECT_OUTPUT_FLG:
            vPwm1_handler.inst->BDTR &= ~(TIM_BDTR_MOE);
 8002e3c:	4b27      	ldr	r3, [pc, #156]	@ (8002edc <tim_Pwm1_Mute_channel+0xc8>)
 8002e3e:	681b      	ldr	r3, [r3, #0]
 8002e40:	6c5a      	ldr	r2, [r3, #68]	@ 0x44
 8002e42:	4b26      	ldr	r3, [pc, #152]	@ (8002edc <tim_Pwm1_Mute_channel+0xc8>)
 8002e44:	681b      	ldr	r3, [r3, #0]
 8002e46:	f422 4200 	bic.w	r2, r2, #32768	@ 0x8000
 8002e4a:	645a      	str	r2, [r3, #68]	@ 0x44
            vPwm1_handler.is_outputing = TIM_DET_OUTPUT_FLAG(vPwm1_handler.inst->BDTR);
 8002e4c:	4b23      	ldr	r3, [pc, #140]	@ (8002edc <tim_Pwm1_Mute_channel+0xc8>)
 8002e4e:	681b      	ldr	r3, [r3, #0]
 8002e50:	6c5b      	ldr	r3, [r3, #68]	@ 0x44
 8002e52:	f403 4300 	and.w	r3, r3, #32768	@ 0x8000
 8002e56:	2b01      	cmp	r3, #1
 8002e58:	bf0c      	ite	eq
 8002e5a:	2301      	moveq	r3, #1
 8002e5c:	2300      	movne	r3, #0
 8002e5e:	b2da      	uxtb	r2, r3
 8002e60:	4b1e      	ldr	r3, [pc, #120]	@ (8002edc <tim_Pwm1_Mute_channel+0xc8>)
 8002e62:	715a      	strb	r2, [r3, #5]
            vPwm1_handler.inst->CCR1 = 0;
 8002e64:	4b1d      	ldr	r3, [pc, #116]	@ (8002edc <tim_Pwm1_Mute_channel+0xc8>)
 8002e66:	681b      	ldr	r3, [r3, #0]
 8002e68:	2200      	movs	r2, #0
 8002e6a:	635a      	str	r2, [r3, #52]	@ 0x34
            vPwm1_handler.inst->CCR2 = 0;
 8002e6c:	4b1b      	ldr	r3, [pc, #108]	@ (8002edc <tim_Pwm1_Mute_channel+0xc8>)
 8002e6e:	681b      	ldr	r3, [r3, #0]
 8002e70:	2200      	movs	r2, #0
 8002e72:	639a      	str	r2, [r3, #56]	@ 0x38
            vPwm1_handler.inst->CCR3 = 0;
 8002e74:	4b19      	ldr	r3, [pc, #100]	@ (8002edc <tim_Pwm1_Mute_channel+0xc8>)
 8002e76:	681b      	ldr	r3, [r3, #0]
 8002e78:	2200      	movs	r2, #0
 8002e7a:	63da      	str	r2, [r3, #60]	@ 0x3c
            break;
 8002e7c:	e027      	b.n	8002ece <tim_Pwm1_Mute_channel+0xba>
        case TIM_SELECT_U_LINE:
        	vPwm1_handler.inst->CCR1 = 0;
 8002e7e:	4b17      	ldr	r3, [pc, #92]	@ (8002edc <tim_Pwm1_Mute_channel+0xc8>)
 8002e80:	681b      	ldr	r3, [r3, #0]
 8002e82:	2200      	movs	r2, #0
 8002e84:	635a      	str	r2, [r3, #52]	@ 0x34
            vPwm1_handler.inst->CCER &= ~(TIM_CCER_CC1E | TIM_CCER_CC1NE);
 8002e86:	4b15      	ldr	r3, [pc, #84]	@ (8002edc <tim_Pwm1_Mute_channel+0xc8>)
 8002e88:	681b      	ldr	r3, [r3, #0]
 8002e8a:	6a1a      	ldr	r2, [r3, #32]
 8002e8c:	4b13      	ldr	r3, [pc, #76]	@ (8002edc <tim_Pwm1_Mute_channel+0xc8>)
 8002e8e:	681b      	ldr	r3, [r3, #0]
 8002e90:	f022 0205 	bic.w	r2, r2, #5
 8002e94:	621a      	str	r2, [r3, #32]
            break;
 8002e96:	e01a      	b.n	8002ece <tim_Pwm1_Mute_channel+0xba>
        case TIM_SELECT_V_LINE:
        	vPwm1_handler.inst->CCR2 = 0;
 8002e98:	4b10      	ldr	r3, [pc, #64]	@ (8002edc <tim_Pwm1_Mute_channel+0xc8>)
 8002e9a:	681b      	ldr	r3, [r3, #0]
 8002e9c:	2200      	movs	r2, #0
 8002e9e:	639a      	str	r2, [r3, #56]	@ 0x38
            vPwm1_handler.inst->CCER &= ~(TIM_CCER_CC2E | TIM_CCER_CC2NE);
 8002ea0:	4b0e      	ldr	r3, [pc, #56]	@ (8002edc <tim_Pwm1_Mute_channel+0xc8>)
 8002ea2:	681b      	ldr	r3, [r3, #0]
 8002ea4:	6a1a      	ldr	r2, [r3, #32]
 8002ea6:	4b0d      	ldr	r3, [pc, #52]	@ (8002edc <tim_Pwm1_Mute_channel+0xc8>)
 8002ea8:	681b      	ldr	r3, [r3, #0]
 8002eaa:	f022 0250 	bic.w	r2, r2, #80	@ 0x50
 8002eae:	621a      	str	r2, [r3, #32]
            break;
 8002eb0:	e00d      	b.n	8002ece <tim_Pwm1_Mute_channel+0xba>
        case TIM_SELECT_W_LINE:
        	vPwm1_handler.inst->CCR3 = 0;
 8002eb2:	4b0a      	ldr	r3, [pc, #40]	@ (8002edc <tim_Pwm1_Mute_channel+0xc8>)
 8002eb4:	681b      	ldr	r3, [r3, #0]
 8002eb6:	2200      	movs	r2, #0
 8002eb8:	63da      	str	r2, [r3, #60]	@ 0x3c
            vPwm1_handler.inst->CCER &= ~(TIM_CCER_CC3E | TIM_CCER_CC3NE);
 8002eba:	4b08      	ldr	r3, [pc, #32]	@ (8002edc <tim_Pwm1_Mute_channel+0xc8>)
 8002ebc:	681b      	ldr	r3, [r3, #0]
 8002ebe:	6a1a      	ldr	r2, [r3, #32]
 8002ec0:	4b06      	ldr	r3, [pc, #24]	@ (8002edc <tim_Pwm1_Mute_channel+0xc8>)
 8002ec2:	681b      	ldr	r3, [r3, #0]
 8002ec4:	f422 62a0 	bic.w	r2, r2, #1280	@ 0x500
 8002ec8:	621a      	str	r2, [r3, #32]
            break;
 8002eca:	e000      	b.n	8002ece <tim_Pwm1_Mute_channel+0xba>
        default:
            break;
 8002ecc:	bf00      	nop
    }
}
 8002ece:	bf00      	nop
 8002ed0:	370c      	adds	r7, #12
 8002ed2:	46bd      	mov	sp, r7
 8002ed4:	f85d 7b04 	ldr.w	r7, [sp], #4
 8002ed8:	4770      	bx	lr
 8002eda:	bf00      	nop
 8002edc:	20000290 	.word	0x20000290

08002ee0 <tim_Pwm1_Unmute_channel>:

inline void tim_Pwm1_Unmute_channel(typTim_sigLineNum chNum)
{   
 8002ee0:	b480      	push	{r7}
 8002ee2:	b083      	sub	sp, #12
 8002ee4:	af00      	add	r7, sp, #0
 8002ee6:	4603      	mov	r3, r0
 8002ee8:	71fb      	strb	r3, [r7, #7]
    switch(chNum)
 8002eea:	79fb      	ldrb	r3, [r7, #7]
 8002eec:	2b03      	cmp	r3, #3
 8002eee:	d83b      	bhi.n	8002f68 <tim_Pwm1_Unmute_channel+0x88>
 8002ef0:	a201      	add	r2, pc, #4	@ (adr r2, 8002ef8 <tim_Pwm1_Unmute_channel+0x18>)
 8002ef2:	f852 f023 	ldr.w	pc, [r2, r3, lsl #2]
 8002ef6:	bf00      	nop
 8002ef8:	08002f09 	.word	0x08002f09
 8002efc:	08002f33 	.word	0x08002f33
 8002f00:	08002f45 	.word	0x08002f45
 8002f04:	08002f57 	.word	0x08002f57
    {
        case TIM_SELECT_OUTPUT_FLG:

            vPwm1_handler.inst->BDTR |= TIM_BDTR_MOE;
 8002f08:	4b1b      	ldr	r3, [pc, #108]	@ (8002f78 <tim_Pwm1_Unmute_channel+0x98>)
 8002f0a:	681b      	ldr	r3, [r3, #0]
 8002f0c:	6c5a      	ldr	r2, [r3, #68]	@ 0x44
 8002f0e:	4b1a      	ldr	r3, [pc, #104]	@ (8002f78 <tim_Pwm1_Unmute_channel+0x98>)
 8002f10:	681b      	ldr	r3, [r3, #0]
 8002f12:	f442 4200 	orr.w	r2, r2, #32768	@ 0x8000
 8002f16:	645a      	str	r2, [r3, #68]	@ 0x44
            vPwm1_handler.is_outputing = TIM_DET_OUTPUT_FLAG(vPwm1_handler.inst->BDTR);
 8002f18:	4b17      	ldr	r3, [pc, #92]	@ (8002f78 <tim_Pwm1_Unmute_channel+0x98>)
 8002f1a:	681b      	ldr	r3, [r3, #0]
 8002f1c:	6c5b      	ldr	r3, [r3, #68]	@ 0x44
 8002f1e:	f403 4300 	and.w	r3, r3, #32768	@ 0x8000
 8002f22:	2b01      	cmp	r3, #1
 8002f24:	bf0c      	ite	eq
 8002f26:	2301      	moveq	r3, #1
 8002f28:	2300      	movne	r3, #0
 8002f2a:	b2da      	uxtb	r2, r3
 8002f2c:	4b12      	ldr	r3, [pc, #72]	@ (8002f78 <tim_Pwm1_Unmute_channel+0x98>)
 8002f2e:	715a      	strb	r2, [r3, #5]
            break;
 8002f30:	e01b      	b.n	8002f6a <tim_Pwm1_Unmute_channel+0x8a>
        case TIM_SELECT_U_LINE:
            vPwm1_handler.inst->CCER |= (TIM_CCER_CC1E | TIM_CCER_CC1NE);
 8002f32:	4b11      	ldr	r3, [pc, #68]	@ (8002f78 <tim_Pwm1_Unmute_channel+0x98>)
 8002f34:	681b      	ldr	r3, [r3, #0]
 8002f36:	6a1a      	ldr	r2, [r3, #32]
 8002f38:	4b0f      	ldr	r3, [pc, #60]	@ (8002f78 <tim_Pwm1_Unmute_channel+0x98>)
 8002f3a:	681b      	ldr	r3, [r3, #0]
 8002f3c:	f042 0205 	orr.w	r2, r2, #5
 8002f40:	621a      	str	r2, [r3, #32]
            break;
 8002f42:	e012      	b.n	8002f6a <tim_Pwm1_Unmute_channel+0x8a>
        case TIM_SELECT_V_LINE:
            vPwm1_handler.inst->CCER |= (TIM_CCER_CC2E | TIM_CCER_CC2NE);
 8002f44:	4b0c      	ldr	r3, [pc, #48]	@ (8002f78 <tim_Pwm1_Unmute_channel+0x98>)
 8002f46:	681b      	ldr	r3, [r3, #0]
 8002f48:	6a1a      	ldr	r2, [r3, #32]
 8002f4a:	4b0b      	ldr	r3, [pc, #44]	@ (8002f78 <tim_Pwm1_Unmute_channel+0x98>)
 8002f4c:	681b      	ldr	r3, [r3, #0]
 8002f4e:	f042 0250 	orr.w	r2, r2, #80	@ 0x50
 8002f52:	621a      	str	r2, [r3, #32]
            break;
 8002f54:	e009      	b.n	8002f6a <tim_Pwm1_Unmute_channel+0x8a>
        case TIM_SELECT_W_LINE:
            vPwm1_handler.inst->CCER |= (TIM_CCER_CC3E | TIM_CCER_CC3NE);
 8002f56:	4b08      	ldr	r3, [pc, #32]	@ (8002f78 <tim_Pwm1_Unmute_channel+0x98>)
 8002f58:	681b      	ldr	r3, [r3, #0]
 8002f5a:	6a1a      	ldr	r2, [r3, #32]
 8002f5c:	4b06      	ldr	r3, [pc, #24]	@ (8002f78 <tim_Pwm1_Unmute_channel+0x98>)
 8002f5e:	681b      	ldr	r3, [r3, #0]
 8002f60:	f442 62a0 	orr.w	r2, r2, #1280	@ 0x500
 8002f64:	621a      	str	r2, [r3, #32]
            break;
 8002f66:	e000      	b.n	8002f6a <tim_Pwm1_Unmute_channel+0x8a>
        default:
            break;
 8002f68:	bf00      	nop
    }
}
 8002f6a:	bf00      	nop
 8002f6c:	370c      	adds	r7, #12
 8002f6e:	46bd      	mov	sp, r7
 8002f70:	f85d 7b04 	ldr.w	r7, [sp], #4
 8002f74:	4770      	bx	lr
 8002f76:	bf00      	nop
 8002f78:	20000290 	.word	0x20000290

08002f7c <tim_Pwm1_setCmpVal>:

inline void tim_Pwm1_setCmpVal(typTim_sigLineNum chNum, uint32_t ch_duty)
{
 8002f7c:	b480      	push	{r7}
 8002f7e:	b085      	sub	sp, #20
 8002f80:	af00      	add	r7, sp, #0
 8002f82:	4603      	mov	r3, r0
 8002f84:	6039      	str	r1, [r7, #0]
 8002f86:	71fb      	strb	r3, [r7, #7]
    float max_tick = (float)vPwm1_handler.inst->ARR;
 8002f88:	4b2f      	ldr	r3, [pc, #188]	@ (8003048 <tim_Pwm1_setCmpVal+0xcc>)
 8002f8a:	681b      	ldr	r3, [r3, #0]
 8002f8c:	6adb      	ldr	r3, [r3, #44]	@ 0x2c
 8002f8e:	ee07 3a90 	vmov	s15, r3
 8002f92:	eef8 7a67 	vcvt.f32.u32	s15, s15
 8002f96:	edc7 7a03 	vstr	s15, [r7, #12]
    if (max_tick == 0) return;
 8002f9a:	edd7 7a03 	vldr	s15, [r7, #12]
 8002f9e:	eef5 7a40 	vcmp.f32	s15, #0.0
 8002fa2:	eef1 fa10 	vmrs	APSR_nzcv, fpscr
 8002fa6:	d047      	beq.n	8003038 <tim_Pwm1_setCmpVal+0xbc>

    float duty_ratio = (float)ch_duty / max_tick;
 8002fa8:	683b      	ldr	r3, [r7, #0]
 8002faa:	ee07 3a90 	vmov	s15, r3
 8002fae:	eef8 6a67 	vcvt.f32.u32	s13, s15
 8002fb2:	ed97 7a03 	vldr	s14, [r7, #12]
 8002fb6:	eec6 7a87 	vdiv.f32	s15, s13, s14
 8002fba:	edc7 7a02 	vstr	s15, [r7, #8]

    switch(chNum)
 8002fbe:	79fb      	ldrb	r3, [r7, #7]
 8002fc0:	2b03      	cmp	r3, #3
 8002fc2:	d83b      	bhi.n	800303c <tim_Pwm1_setCmpVal+0xc0>
 8002fc4:	a201      	add	r2, pc, #4	@ (adr r2, 8002fcc <tim_Pwm1_setCmpVal+0x50>)
 8002fc6:	f852 f023 	ldr.w	pc, [r2, r3, lsl #2]
 8002fca:	bf00      	nop
 8002fcc:	08002fdd 	.word	0x08002fdd
 8002fd0:	08003009 	.word	0x08003009
 8002fd4:	08003019 	.word	0x08003019
 8002fd8:	08003029 	.word	0x08003029
    {
        case TIM_SELECT_OUTPUT_FLG:
            vPwm1_handler.inst->CCR1 = ch_duty;
 8002fdc:	4b1a      	ldr	r3, [pc, #104]	@ (8003048 <tim_Pwm1_setCmpVal+0xcc>)
 8002fde:	681b      	ldr	r3, [r3, #0]
 8002fe0:	683a      	ldr	r2, [r7, #0]
 8002fe2:	635a      	str	r2, [r3, #52]	@ 0x34
            vPwm1_handler.inst->CCR2 = ch_duty;
 8002fe4:	4b18      	ldr	r3, [pc, #96]	@ (8003048 <tim_Pwm1_setCmpVal+0xcc>)
 8002fe6:	681b      	ldr	r3, [r3, #0]
 8002fe8:	683a      	ldr	r2, [r7, #0]
 8002fea:	639a      	str	r2, [r3, #56]	@ 0x38
            vPwm1_handler.inst->CCR3 = ch_duty;
 8002fec:	4b16      	ldr	r3, [pc, #88]	@ (8003048 <tim_Pwm1_setCmpVal+0xcc>)
 8002fee:	681b      	ldr	r3, [r3, #0]
 8002ff0:	683a      	ldr	r2, [r7, #0]
 8002ff2:	63da      	str	r2, [r3, #60]	@ 0x3c
            vPwm1_handler.u_posDuty = duty_ratio;
 8002ff4:	4a14      	ldr	r2, [pc, #80]	@ (8003048 <tim_Pwm1_setCmpVal+0xcc>)
 8002ff6:	68bb      	ldr	r3, [r7, #8]
 8002ff8:	6093      	str	r3, [r2, #8]
            vPwm1_handler.v_posDuty = duty_ratio;
 8002ffa:	4a13      	ldr	r2, [pc, #76]	@ (8003048 <tim_Pwm1_setCmpVal+0xcc>)
 8002ffc:	68bb      	ldr	r3, [r7, #8]
 8002ffe:	60d3      	str	r3, [r2, #12]
            vPwm1_handler.w_posDuty = duty_ratio;
 8003000:	4a11      	ldr	r2, [pc, #68]	@ (8003048 <tim_Pwm1_setCmpVal+0xcc>)
 8003002:	68bb      	ldr	r3, [r7, #8]
 8003004:	6113      	str	r3, [r2, #16]
            break;
 8003006:	e01a      	b.n	800303e <tim_Pwm1_setCmpVal+0xc2>
        case TIM_SELECT_U_LINE:
            vPwm1_handler.inst->CCR1 = ch_duty;
 8003008:	4b0f      	ldr	r3, [pc, #60]	@ (8003048 <tim_Pwm1_setCmpVal+0xcc>)
 800300a:	681b      	ldr	r3, [r3, #0]
 800300c:	683a      	ldr	r2, [r7, #0]
 800300e:	635a      	str	r2, [r3, #52]	@ 0x34
            vPwm1_handler.u_posDuty = duty_ratio; 
 8003010:	4a0d      	ldr	r2, [pc, #52]	@ (8003048 <tim_Pwm1_setCmpVal+0xcc>)
 8003012:	68bb      	ldr	r3, [r7, #8]
 8003014:	6093      	str	r3, [r2, #8]
            break;
 8003016:	e012      	b.n	800303e <tim_Pwm1_setCmpVal+0xc2>
        case TIM_SELECT_V_LINE:
            vPwm1_handler.inst->CCR2 = ch_duty;
 8003018:	4b0b      	ldr	r3, [pc, #44]	@ (8003048 <tim_Pwm1_setCmpVal+0xcc>)
 800301a:	681b      	ldr	r3, [r3, #0]
 800301c:	683a      	ldr	r2, [r7, #0]
 800301e:	639a      	str	r2, [r3, #56]	@ 0x38
            vPwm1_handler.v_posDuty = duty_ratio;
 8003020:	4a09      	ldr	r2, [pc, #36]	@ (8003048 <tim_Pwm1_setCmpVal+0xcc>)
 8003022:	68bb      	ldr	r3, [r7, #8]
 8003024:	60d3      	str	r3, [r2, #12]
            break;
 8003026:	e00a      	b.n	800303e <tim_Pwm1_setCmpVal+0xc2>
        case TIM_SELECT_W_LINE:
            vPwm1_handler.inst->CCR3 = ch_duty;
 8003028:	4b07      	ldr	r3, [pc, #28]	@ (8003048 <tim_Pwm1_setCmpVal+0xcc>)
 800302a:	681b      	ldr	r3, [r3, #0]
 800302c:	683a      	ldr	r2, [r7, #0]
 800302e:	63da      	str	r2, [r3, #60]	@ 0x3c
            vPwm1_handler.w_posDuty = duty_ratio;
 8003030:	4a05      	ldr	r2, [pc, #20]	@ (8003048 <tim_Pwm1_setCmpVal+0xcc>)
 8003032:	68bb      	ldr	r3, [r7, #8]
 8003034:	6113      	str	r3, [r2, #16]
            break;
 8003036:	e002      	b.n	800303e <tim_Pwm1_setCmpVal+0xc2>
    if (max_tick == 0) return;
 8003038:	bf00      	nop
 800303a:	e000      	b.n	800303e <tim_Pwm1_setCmpVal+0xc2>
        default:
            break;
 800303c:	bf00      	nop
    }
}
 800303e:	3714      	adds	r7, #20
 8003040:	46bd      	mov	sp, r7
 8003042:	f85d 7b04 	ldr.w	r7, [sp], #4
 8003046:	4770      	bx	lr
 8003048:	20000290 	.word	0x20000290

0800304c <tim_getTim2_cnt>:

uint32_t tim_getTim2_cnt(void)
{
 800304c:	b480      	push	{r7}
 800304e:	af00      	add	r7, sp, #0
    return vTim2_handler.inst->CNT;
 8003050:	4b03      	ldr	r3, [pc, #12]	@ (8003060 <tim_getTim2_cnt+0x14>)
 8003052:	681b      	ldr	r3, [r3, #0]
 8003054:	6a5b      	ldr	r3, [r3, #36]	@ 0x24
}
 8003056:	4618      	mov	r0, r3
 8003058:	46bd      	mov	sp, r7
 800305a:	f85d 7b04 	ldr.w	r7, [sp], #4
 800305e:	4770      	bx	lr
 8003060:	200002a4 	.word	0x200002a4

08003064 <tim_getPwm1_ISR_flg>:
{
    return vPwm1_handler.inst->ARR;
}

bool tim_getPwm1_ISR_flg(void)
{
 8003064:	b480      	push	{r7}
 8003066:	af00      	add	r7, sp, #0
    return (vPwm1_handler.inst->SR & TIM_SR_UIF);
 8003068:	4b07      	ldr	r3, [pc, #28]	@ (8003088 <tim_getPwm1_ISR_flg+0x24>)
 800306a:	681b      	ldr	r3, [r3, #0]
 800306c:	691b      	ldr	r3, [r3, #16]
 800306e:	f003 0301 	and.w	r3, r3, #1
 8003072:	2b00      	cmp	r3, #0
 8003074:	bf14      	ite	ne
 8003076:	2301      	movne	r3, #1
 8003078:	2300      	moveq	r3, #0
 800307a:	b2db      	uxtb	r3, r3
}
 800307c:	4618      	mov	r0, r3
 800307e:	46bd      	mov	sp, r7
 8003080:	f85d 7b04 	ldr.w	r7, [sp], #4
 8003084:	4770      	bx	lr
 8003086:	bf00      	nop
 8003088:	20000290 	.word	0x20000290

0800308c <tim_clrPwm1_ISR_flg>:

void tim_clrPwm1_ISR_flg(void)
{
 800308c:	b480      	push	{r7}
 800308e:	af00      	add	r7, sp, #0
    vPwm1_handler.inst->SR &= ~TIM_SR_UIF;
 8003090:	4b06      	ldr	r3, [pc, #24]	@ (80030ac <tim_clrPwm1_ISR_flg+0x20>)
 8003092:	681b      	ldr	r3, [r3, #0]
 8003094:	691a      	ldr	r2, [r3, #16]
 8003096:	4b05      	ldr	r3, [pc, #20]	@ (80030ac <tim_clrPwm1_ISR_flg+0x20>)
 8003098:	681b      	ldr	r3, [r3, #0]
 800309a:	f022 0201 	bic.w	r2, r2, #1
 800309e:	611a      	str	r2, [r3, #16]
}
 80030a0:	bf00      	nop
 80030a2:	46bd      	mov	sp, r7
 80030a4:	f85d 7b04 	ldr.w	r7, [sp], #4
 80030a8:	4770      	bx	lr
 80030aa:	bf00      	nop
 80030ac:	20000290 	.word	0x20000290

080030b0 <uart_base_init>:

#define UART_AT09_HANDLER      (USART3)
#define UART_DEBUG_HANDLER     (USART2)

static void uart_base_init(typUart_handle* hUart, uint32_t baudrate, uint8_t dataBits, uint8_t stopBits, typUart_parity parity)
{
 80030b0:	b480      	push	{r7}
 80030b2:	b085      	sub	sp, #20
 80030b4:	af00      	add	r7, sp, #0
 80030b6:	60f8      	str	r0, [r7, #12]
 80030b8:	60b9      	str	r1, [r7, #8]
 80030ba:	4611      	mov	r1, r2
 80030bc:	461a      	mov	r2, r3
 80030be:	460b      	mov	r3, r1
 80030c0:	71fb      	strb	r3, [r7, #7]
 80030c2:	4613      	mov	r3, r2
 80030c4:	71bb      	strb	r3, [r7, #6]
    hUart->baudrate = baudrate;
 80030c6:	68fb      	ldr	r3, [r7, #12]
 80030c8:	68ba      	ldr	r2, [r7, #8]
 80030ca:	605a      	str	r2, [r3, #4]
    hUart->dataBits = dataBits;
 80030cc:	68fb      	ldr	r3, [r7, #12]
 80030ce:	79fa      	ldrb	r2, [r7, #7]
 80030d0:	721a      	strb	r2, [r3, #8]
    hUart->stopBits = stopBits;
 80030d2:	68fb      	ldr	r3, [r7, #12]
 80030d4:	79ba      	ldrb	r2, [r7, #6]
 80030d6:	725a      	strb	r2, [r3, #9]
    hUart->parity = parity;
 80030d8:	68fb      	ldr	r3, [r7, #12]
 80030da:	7e3a      	ldrb	r2, [r7, #24]
 80030dc:	729a      	strb	r2, [r3, #10]

    // 1) USART 레지스터 초기화
    hUart->inst->CR1 = 0;
 80030de:	68fb      	ldr	r3, [r7, #12]
 80030e0:	681b      	ldr	r3, [r3, #0]
 80030e2:	2200      	movs	r2, #0
 80030e4:	601a      	str	r2, [r3, #0]
    hUart->inst->CR2 = 0;
 80030e6:	68fb      	ldr	r3, [r7, #12]
 80030e8:	681b      	ldr	r3, [r3, #0]
 80030ea:	2200      	movs	r2, #0
 80030ec:	605a      	str	r2, [r3, #4]
    hUart->inst->CR3 = 0;
 80030ee:	68fb      	ldr	r3, [r7, #12]
 80030f0:	681b      	ldr	r3, [r3, #0]
 80030f2:	2200      	movs	r2, #0
 80030f4:	609a      	str	r2, [r3, #8]
    
    // 2) 보드레이트 설정 (BRR = PCLK / Baud)
    hUart->inst->BRR = UART_PCLK_FREQ_HZ / baudrate;
 80030f6:	68fb      	ldr	r3, [r7, #12]
 80030f8:	681b      	ldr	r3, [r3, #0]
 80030fa:	4927      	ldr	r1, [pc, #156]	@ (8003198 <uart_base_init+0xe8>)
 80030fc:	68ba      	ldr	r2, [r7, #8]
 80030fe:	fbb1 f2f2 	udiv	r2, r1, r2
 8003102:	60da      	str	r2, [r3, #12]

    // 3) 패리티 비트 설정
    if(parity != UART_PARITY_NONE) 
 8003104:	7e3b      	ldrb	r3, [r7, #24]
 8003106:	2b00      	cmp	r3, #0
 8003108:	d01b      	beq.n	8003142 <uart_base_init+0x92>
    {
        hUart->inst->CR1 |= USART_CR1_PCE;
 800310a:	68fb      	ldr	r3, [r7, #12]
 800310c:	681b      	ldr	r3, [r3, #0]
 800310e:	681a      	ldr	r2, [r3, #0]
 8003110:	68fb      	ldr	r3, [r7, #12]
 8003112:	681b      	ldr	r3, [r3, #0]
 8003114:	f442 6280 	orr.w	r2, r2, #1024	@ 0x400
 8003118:	601a      	str	r2, [r3, #0]
        if(parity == UART_PARITY_ODD) hUart->inst->CR1 |= USART_CR1_PS;
 800311a:	7e3b      	ldrb	r3, [r7, #24]
 800311c:	2b02      	cmp	r3, #2
 800311e:	d108      	bne.n	8003132 <uart_base_init+0x82>
 8003120:	68fb      	ldr	r3, [r7, #12]
 8003122:	681b      	ldr	r3, [r3, #0]
 8003124:	681a      	ldr	r2, [r3, #0]
 8003126:	68fb      	ldr	r3, [r7, #12]
 8003128:	681b      	ldr	r3, [r3, #0]
 800312a:	f442 7200 	orr.w	r2, r2, #512	@ 0x200
 800312e:	601a      	str	r2, [r3, #0]
 8003130:	e007      	b.n	8003142 <uart_base_init+0x92>
        else                          hUart->inst->CR1 &= ~USART_CR1_PS;
 8003132:	68fb      	ldr	r3, [r7, #12]
 8003134:	681b      	ldr	r3, [r3, #0]
 8003136:	681a      	ldr	r2, [r3, #0]
 8003138:	68fb      	ldr	r3, [r7, #12]
 800313a:	681b      	ldr	r3, [r3, #0]
 800313c:	f422 7200 	bic.w	r2, r2, #512	@ 0x200
 8003140:	601a      	str	r2, [r3, #0]
    }

    // 4) 스탑 비트 설정
    hUart->inst->CR2 &= ~USART_CR2_STOP_Msk;
 8003142:	68fb      	ldr	r3, [r7, #12]
 8003144:	681b      	ldr	r3, [r3, #0]
 8003146:	685a      	ldr	r2, [r3, #4]
 8003148:	68fb      	ldr	r3, [r7, #12]
 800314a:	681b      	ldr	r3, [r3, #0]
 800314c:	f422 5240 	bic.w	r2, r2, #12288	@ 0x3000
 8003150:	605a      	str	r2, [r3, #4]
    if(stopBits == 2) 
 8003152:	79bb      	ldrb	r3, [r7, #6]
 8003154:	2b02      	cmp	r3, #2
 8003156:	d108      	bne.n	800316a <uart_base_init+0xba>
        hUart->inst->CR2 |= UTILS_BIT_SHIFT(USART_CR2_STOP_Pos, UART_STOPBIT_2);
 8003158:	68fb      	ldr	r3, [r7, #12]
 800315a:	681b      	ldr	r3, [r3, #0]
 800315c:	685a      	ldr	r2, [r3, #4]
 800315e:	68fb      	ldr	r3, [r7, #12]
 8003160:	681b      	ldr	r3, [r3, #0]
 8003162:	f442 5200 	orr.w	r2, r2, #8192	@ 0x2000
 8003166:	605a      	str	r2, [r3, #4]
 8003168:	e005      	b.n	8003176 <uart_base_init+0xc6>
    else 
        hUart->inst->CR2 |= UTILS_BIT_SHIFT(USART_CR2_STOP_Pos, UART_STOPBIT_1);
 800316a:	68fb      	ldr	r3, [r7, #12]
 800316c:	681a      	ldr	r2, [r3, #0]
 800316e:	68fb      	ldr	r3, [r7, #12]
 8003170:	681b      	ldr	r3, [r3, #0]
 8003172:	6852      	ldr	r2, [r2, #4]
 8003174:	605a      	str	r2, [r3, #4]

    // 5) TE, RE, UE 활성화
    hUart->inst->CR1 |= (USART_CR1_TE | USART_CR1_RE | USART_CR1_UE);
 8003176:	68fb      	ldr	r3, [r7, #12]
 8003178:	681b      	ldr	r3, [r3, #0]
 800317a:	681a      	ldr	r2, [r3, #0]
 800317c:	68fb      	ldr	r3, [r7, #12]
 800317e:	681b      	ldr	r3, [r3, #0]
 8003180:	f042 020d 	orr.w	r2, r2, #13
 8003184:	601a      	str	r2, [r3, #0]

    hUart->is_initialized = true;
 8003186:	68fb      	ldr	r3, [r7, #12]
 8003188:	2201      	movs	r2, #1
 800318a:	73da      	strb	r2, [r3, #15]
}
 800318c:	bf00      	nop
 800318e:	3714      	adds	r7, #20
 8003190:	46bd      	mov	sp, r7
 8003192:	f85d 7b04 	ldr.w	r7, [sp], #4
 8003196:	4770      	bx	lr
 8003198:	0337f980 	.word	0x0337f980

0800319c <uart_AT09_init>:

// UART3 (Bluetooth - AT09) 초기화
void uart_AT09_init(uint32_t baudrate, uint8_t dataBits, uint8_t stopBits, typUart_parity parity)
{
 800319c:	b580      	push	{r7, lr}
 800319e:	b084      	sub	sp, #16
 80031a0:	af02      	add	r7, sp, #8
 80031a2:	6078      	str	r0, [r7, #4]
 80031a4:	4608      	mov	r0, r1
 80031a6:	4611      	mov	r1, r2
 80031a8:	461a      	mov	r2, r3
 80031aa:	4603      	mov	r3, r0
 80031ac:	70fb      	strb	r3, [r7, #3]
 80031ae:	460b      	mov	r3, r1
 80031b0:	70bb      	strb	r3, [r7, #2]
 80031b2:	4613      	mov	r3, r2
 80031b4:	707b      	strb	r3, [r7, #1]
    uart3_handler.inst = UART_AT09_HANDLER; // USART3
 80031b6:	4b0e      	ldr	r3, [pc, #56]	@ (80031f0 <uart_AT09_init+0x54>)
 80031b8:	4a0e      	ldr	r2, [pc, #56]	@ (80031f4 <uart_AT09_init+0x58>)
 80031ba:	601a      	str	r2, [r3, #0]

    // UART3 전용 핀 설정
    gpio_set_alterFunc(BLUETOOTH_TX_Port, 8, 7, GPIO_SPD_VERY_HIGH);
 80031bc:	2303      	movs	r3, #3
 80031be:	2207      	movs	r2, #7
 80031c0:	2108      	movs	r1, #8
 80031c2:	480d      	ldr	r0, [pc, #52]	@ (80031f8 <uart_AT09_init+0x5c>)
 80031c4:	f7fe fe55 	bl	8001e72 <gpio_set_alterFunc>
    gpio_set_alterFunc(BLUETOOTH_RX_Port, 9, 7, GPIO_SPD_VERY_HIGH);
 80031c8:	2303      	movs	r3, #3
 80031ca:	2207      	movs	r2, #7
 80031cc:	2109      	movs	r1, #9
 80031ce:	480a      	ldr	r0, [pc, #40]	@ (80031f8 <uart_AT09_init+0x5c>)
 80031d0:	f7fe fe4f 	bl	8001e72 <gpio_set_alterFunc>

    // 공용 로직 호출
    uart_base_init(&uart3_handler, baudrate, dataBits, stopBits, parity);
 80031d4:	78b9      	ldrb	r1, [r7, #2]
 80031d6:	78fa      	ldrb	r2, [r7, #3]
 80031d8:	787b      	ldrb	r3, [r7, #1]
 80031da:	9300      	str	r3, [sp, #0]
 80031dc:	460b      	mov	r3, r1
 80031de:	6879      	ldr	r1, [r7, #4]
 80031e0:	4803      	ldr	r0, [pc, #12]	@ (80031f0 <uart_AT09_init+0x54>)
 80031e2:	f7ff ff65 	bl	80030b0 <uart_base_init>
}
 80031e6:	bf00      	nop
 80031e8:	3708      	adds	r7, #8
 80031ea:	46bd      	mov	sp, r7
 80031ec:	bd80      	pop	{r7, pc}
 80031ee:	bf00      	nop
 80031f0:	200002ac 	.word	0x200002ac
 80031f4:	40004800 	.word	0x40004800
 80031f8:	40020c00 	.word	0x40020c00

080031fc <uart_debug_init>:

// UART2 (Debug) 초기화
void uart_debug_init(uint32_t baudrate, uint8_t dataBits, uint8_t stopBits, typUart_parity parity)
{
 80031fc:	b580      	push	{r7, lr}
 80031fe:	b084      	sub	sp, #16
 8003200:	af02      	add	r7, sp, #8
 8003202:	6078      	str	r0, [r7, #4]
 8003204:	4608      	mov	r0, r1
 8003206:	4611      	mov	r1, r2
 8003208:	461a      	mov	r2, r3
 800320a:	4603      	mov	r3, r0
 800320c:	70fb      	strb	r3, [r7, #3]
 800320e:	460b      	mov	r3, r1
 8003210:	70bb      	strb	r3, [r7, #2]
 8003212:	4613      	mov	r3, r2
 8003214:	707b      	strb	r3, [r7, #1]
    uart2_handler.inst = USART2;
 8003216:	4b0e      	ldr	r3, [pc, #56]	@ (8003250 <uart_debug_init+0x54>)
 8003218:	4a0e      	ldr	r2, [pc, #56]	@ (8003254 <uart_debug_init+0x58>)
 800321a:	601a      	str	r2, [r3, #0]

    // UART2 전용 핀 설정
    gpio_set_alterFunc(USART2_TX_Port, 5, 7, GPIO_SPD_VERY_HIGH);
 800321c:	2303      	movs	r3, #3
 800321e:	2207      	movs	r2, #7
 8003220:	2105      	movs	r1, #5
 8003222:	480d      	ldr	r0, [pc, #52]	@ (8003258 <uart_debug_init+0x5c>)
 8003224:	f7fe fe25 	bl	8001e72 <gpio_set_alterFunc>
    gpio_set_alterFunc(USART2_RX_Port, 6, 7, GPIO_SPD_VERY_HIGH);
 8003228:	2303      	movs	r3, #3
 800322a:	2207      	movs	r2, #7
 800322c:	2106      	movs	r1, #6
 800322e:	480a      	ldr	r0, [pc, #40]	@ (8003258 <uart_debug_init+0x5c>)
 8003230:	f7fe fe1f 	bl	8001e72 <gpio_set_alterFunc>

    // 공용 로직 호출
    uart_base_init(&uart2_handler, baudrate, dataBits, stopBits, parity);
 8003234:	78b9      	ldrb	r1, [r7, #2]
 8003236:	78fa      	ldrb	r2, [r7, #3]
 8003238:	787b      	ldrb	r3, [r7, #1]
 800323a:	9300      	str	r3, [sp, #0]
 800323c:	460b      	mov	r3, r1
 800323e:	6879      	ldr	r1, [r7, #4]
 8003240:	4803      	ldr	r0, [pc, #12]	@ (8003250 <uart_debug_init+0x54>)
 8003242:	f7ff ff35 	bl	80030b0 <uart_base_init>
}
 8003246:	bf00      	nop
 8003248:	3708      	adds	r7, #8
 800324a:	46bd      	mov	sp, r7
 800324c:	bd80      	pop	{r7, pc}
 800324e:	bf00      	nop
 8003250:	200002bc 	.word	0x200002bc
 8003254:	40004400 	.word	0x40004400
 8003258:	40020c00 	.word	0x40020c00

0800325c <uart_sendChar_polling>:

static inline void uart_sendChar_polling(typUart_handle* hUart, char c)
{
 800325c:	b480      	push	{r7}
 800325e:	b083      	sub	sp, #12
 8003260:	af00      	add	r7, sp, #0
 8003262:	6078      	str	r0, [r7, #4]
 8003264:	460b      	mov	r3, r1
 8003266:	70fb      	strb	r3, [r7, #3]
    // TXE 플래그가 설정될 때까지 대기
    while(!(hUart->inst->ISR & USART_ISR_TXE));
 8003268:	bf00      	nop
 800326a:	687b      	ldr	r3, [r7, #4]
 800326c:	681b      	ldr	r3, [r3, #0]
 800326e:	69db      	ldr	r3, [r3, #28]
 8003270:	f003 0380 	and.w	r3, r3, #128	@ 0x80
 8003274:	2b00      	cmp	r3, #0
 8003276:	d0f8      	beq.n	800326a <uart_sendChar_polling+0xe>
    
    // 데이터 전송
    hUart->inst->TDR = (uint8_t)c;
 8003278:	687b      	ldr	r3, [r7, #4]
 800327a:	681b      	ldr	r3, [r3, #0]
 800327c:	78fa      	ldrb	r2, [r7, #3]
 800327e:	629a      	str	r2, [r3, #40]	@ 0x28
}
 8003280:	bf00      	nop
 8003282:	370c      	adds	r7, #12
 8003284:	46bd      	mov	sp, r7
 8003286:	f85d 7b04 	ldr.w	r7, [sp], #4
 800328a:	4770      	bx	lr

0800328c <uart_sendStr_polling>:
        }
    }
}

static inline void uart_sendStr_polling(typUart_handle* hUart, char* str, uint32_t len)
{
 800328c:	b580      	push	{r7, lr}
 800328e:	b086      	sub	sp, #24
 8003290:	af00      	add	r7, sp, #0
 8003292:	60f8      	str	r0, [r7, #12]
 8003294:	60b9      	str	r1, [r7, #8]
 8003296:	607a      	str	r2, [r7, #4]
    if(str == NULL || len == 0) return;
 8003298:	68bb      	ldr	r3, [r7, #8]
 800329a:	2b00      	cmp	r3, #0
 800329c:	d015      	beq.n	80032ca <uart_sendStr_polling+0x3e>
 800329e:	687b      	ldr	r3, [r7, #4]
 80032a0:	2b00      	cmp	r3, #0
 80032a2:	d012      	beq.n	80032ca <uart_sendStr_polling+0x3e>

    for(uint32_t i = 0; i < len; i++)
 80032a4:	2300      	movs	r3, #0
 80032a6:	617b      	str	r3, [r7, #20]
 80032a8:	e00a      	b.n	80032c0 <uart_sendStr_polling+0x34>
    {
        uart_sendChar_polling(hUart, str[i]);
 80032aa:	68ba      	ldr	r2, [r7, #8]
 80032ac:	697b      	ldr	r3, [r7, #20]
 80032ae:	4413      	add	r3, r2
 80032b0:	781b      	ldrb	r3, [r3, #0]
 80032b2:	4619      	mov	r1, r3
 80032b4:	68f8      	ldr	r0, [r7, #12]
 80032b6:	f7ff ffd1 	bl	800325c <uart_sendChar_polling>
    for(uint32_t i = 0; i < len; i++)
 80032ba:	697b      	ldr	r3, [r7, #20]
 80032bc:	3301      	adds	r3, #1
 80032be:	617b      	str	r3, [r7, #20]
 80032c0:	697a      	ldr	r2, [r7, #20]
 80032c2:	687b      	ldr	r3, [r7, #4]
 80032c4:	429a      	cmp	r2, r3
 80032c6:	d3f0      	bcc.n	80032aa <uart_sendStr_polling+0x1e>
 80032c8:	e000      	b.n	80032cc <uart_sendStr_polling+0x40>
    if(str == NULL || len == 0) return;
 80032ca:	bf00      	nop
    }
}
 80032cc:	3718      	adds	r7, #24
 80032ce:	46bd      	mov	sp, r7
 80032d0:	bd80      	pop	{r7, pc}
	...

080032d4 <uart_send_uint>:

static inline void uart_send_uint(typUart_handle* hUart, uint32_t val)
{
 80032d4:	b580      	push	{r7, lr}
 80032d6:	b086      	sub	sp, #24
 80032d8:	af00      	add	r7, sp, #0
 80032da:	6078      	str	r0, [r7, #4]
 80032dc:	6039      	str	r1, [r7, #0]
    char tempBuff[11]; // 32비트 최대값 4,294,967,295 (10자리) + 여유분
    uint8_t idx = 0;
 80032de:	2300      	movs	r3, #0
 80032e0:	75fb      	strb	r3, [r7, #23]

    if (val == 0)
 80032e2:	683b      	ldr	r3, [r7, #0]
 80032e4:	2b00      	cmp	r3, #0
 80032e6:	d11e      	bne.n	8003326 <uart_send_uint+0x52>
    {
        uart_sendChar_polling(hUart, '0');
 80032e8:	2130      	movs	r1, #48	@ 0x30
 80032ea:	6878      	ldr	r0, [r7, #4]
 80032ec:	f7ff ffb6 	bl	800325c <uart_sendChar_polling>
 80032f0:	e02f      	b.n	8003352 <uart_send_uint+0x7e>
    }

    // 1. 역순으로 버퍼에 저장
    while (val > 0 && idx < 10)
    {
        tempBuff[idx++] = (char)((val % 10) + '0');
 80032f2:	6839      	ldr	r1, [r7, #0]
 80032f4:	4b18      	ldr	r3, [pc, #96]	@ (8003358 <uart_send_uint+0x84>)
 80032f6:	fba3 2301 	umull	r2, r3, r3, r1
 80032fa:	08da      	lsrs	r2, r3, #3
 80032fc:	4613      	mov	r3, r2
 80032fe:	009b      	lsls	r3, r3, #2
 8003300:	4413      	add	r3, r2
 8003302:	005b      	lsls	r3, r3, #1
 8003304:	1aca      	subs	r2, r1, r3
 8003306:	b2d2      	uxtb	r2, r2
 8003308:	7dfb      	ldrb	r3, [r7, #23]
 800330a:	1c59      	adds	r1, r3, #1
 800330c:	75f9      	strb	r1, [r7, #23]
 800330e:	3230      	adds	r2, #48	@ 0x30
 8003310:	b2d2      	uxtb	r2, r2
 8003312:	3318      	adds	r3, #24
 8003314:	443b      	add	r3, r7
 8003316:	f803 2c0c 	strb.w	r2, [r3, #-12]
        val /= 10;
 800331a:	683b      	ldr	r3, [r7, #0]
 800331c:	4a0e      	ldr	r2, [pc, #56]	@ (8003358 <uart_send_uint+0x84>)
 800331e:	fba2 2303 	umull	r2, r3, r2, r3
 8003322:	08db      	lsrs	r3, r3, #3
 8003324:	603b      	str	r3, [r7, #0]
    while (val > 0 && idx < 10)
 8003326:	683b      	ldr	r3, [r7, #0]
 8003328:	2b00      	cmp	r3, #0
 800332a:	d00f      	beq.n	800334c <uart_send_uint+0x78>
 800332c:	7dfb      	ldrb	r3, [r7, #23]
 800332e:	2b09      	cmp	r3, #9
 8003330:	d9df      	bls.n	80032f2 <uart_send_uint+0x1e>
    }

    // 2. 버퍼를 역순으로 읽어 출력
    while (idx > 0)
 8003332:	e00b      	b.n	800334c <uart_send_uint+0x78>
    {
        uart_sendChar_polling(hUart, tempBuff[--idx]);
 8003334:	7dfb      	ldrb	r3, [r7, #23]
 8003336:	3b01      	subs	r3, #1
 8003338:	75fb      	strb	r3, [r7, #23]
 800333a:	7dfb      	ldrb	r3, [r7, #23]
 800333c:	3318      	adds	r3, #24
 800333e:	443b      	add	r3, r7
 8003340:	f813 3c0c 	ldrb.w	r3, [r3, #-12]
 8003344:	4619      	mov	r1, r3
 8003346:	6878      	ldr	r0, [r7, #4]
 8003348:	f7ff ff88 	bl	800325c <uart_sendChar_polling>
    while (idx > 0)
 800334c:	7dfb      	ldrb	r3, [r7, #23]
 800334e:	2b00      	cmp	r3, #0
 8003350:	d1f0      	bne.n	8003334 <uart_send_uint+0x60>
    }
}
 8003352:	3718      	adds	r7, #24
 8003354:	46bd      	mov	sp, r7
 8003356:	bd80      	pop	{r7, pc}
 8003358:	cccccccd 	.word	0xcccccccd

0800335c <uart_send_int>:

static inline void uart_send_int(typUart_handle* hUart, int32_t val)
{
 800335c:	b580      	push	{r7, lr}
 800335e:	b082      	sub	sp, #8
 8003360:	af00      	add	r7, sp, #0
 8003362:	6078      	str	r0, [r7, #4]
 8003364:	6039      	str	r1, [r7, #0]
    if(val < 0) {
 8003366:	683b      	ldr	r3, [r7, #0]
 8003368:	2b00      	cmp	r3, #0
 800336a:	da06      	bge.n	800337a <uart_send_int+0x1e>
        uart_sendChar_polling(hUart, '-');
 800336c:	212d      	movs	r1, #45	@ 0x2d
 800336e:	6878      	ldr	r0, [r7, #4]
 8003370:	f7ff ff74 	bl	800325c <uart_sendChar_polling>
        val = -val;
 8003374:	683b      	ldr	r3, [r7, #0]
 8003376:	425b      	negs	r3, r3
 8003378:	603b      	str	r3, [r7, #0]
    }
    uart_send_uint(hUart, (uint32_t)val);
 800337a:	683b      	ldr	r3, [r7, #0]
 800337c:	4619      	mov	r1, r3
 800337e:	6878      	ldr	r0, [r7, #4]
 8003380:	f7ff ffa8 	bl	80032d4 <uart_send_uint>
}
 8003384:	bf00      	nop
 8003386:	3708      	adds	r7, #8
 8003388:	46bd      	mov	sp, r7
 800338a:	bd80      	pop	{r7, pc}

0800338c <uart_sendFloat>:

static inline void uart_sendFloat(typUart_handle* hUart, float val, uint8_t decimals)
{
 800338c:	b580      	push	{r7, lr}
 800338e:	b088      	sub	sp, #32
 8003390:	af00      	add	r7, sp, #0
 8003392:	60f8      	str	r0, [r7, #12]
 8003394:	ed87 0a02 	vstr	s0, [r7, #8]
 8003398:	460b      	mov	r3, r1
 800339a:	71fb      	strb	r3, [r7, #7]
    uint32_t intPart = 0;
 800339c:	2300      	movs	r3, #0
 800339e:	617b      	str	r3, [r7, #20]
    float fracPart = 0.0f;
 80033a0:	f04f 0300 	mov.w	r3, #0
 80033a4:	61fb      	str	r3, [r7, #28]

    // 1. 부호처리
    if(val < 0)
 80033a6:	edd7 7a02 	vldr	s15, [r7, #8]
 80033aa:	eef5 7ac0 	vcmpe.f32	s15, #0.0
 80033ae:	eef1 fa10 	vmrs	APSR_nzcv, fpscr
 80033b2:	d509      	bpl.n	80033c8 <uart_sendFloat+0x3c>
    {
        uart_sendChar_polling(hUart, '-');
 80033b4:	212d      	movs	r1, #45	@ 0x2d
 80033b6:	68f8      	ldr	r0, [r7, #12]
 80033b8:	f7ff ff50 	bl	800325c <uart_sendChar_polling>
        val = -val; // 양수로 변환
 80033bc:	edd7 7a02 	vldr	s15, [r7, #8]
 80033c0:	eef1 7a67 	vneg.f32	s15, s15
 80033c4:	edc7 7a02 	vstr	s15, [r7, #8]
    }

    // 2. 정수부 처리
    intPart = (uint32_t)val;
 80033c8:	edd7 7a02 	vldr	s15, [r7, #8]
 80033cc:	eefc 7ae7 	vcvt.u32.f32	s15, s15
 80033d0:	ee17 3a90 	vmov	r3, s15
 80033d4:	617b      	str	r3, [r7, #20]
    fracPart = val - (float)intPart;
 80033d6:	697b      	ldr	r3, [r7, #20]
 80033d8:	ee07 3a90 	vmov	s15, r3
 80033dc:	eef8 7a67 	vcvt.f32.u32	s15, s15
 80033e0:	ed97 7a02 	vldr	s14, [r7, #8]
 80033e4:	ee77 7a67 	vsub.f32	s15, s14, s15
 80033e8:	edc7 7a07 	vstr	s15, [r7, #28]
    uart_send_uint(hUart, intPart);
 80033ec:	6979      	ldr	r1, [r7, #20]
 80033ee:	68f8      	ldr	r0, [r7, #12]
 80033f0:	f7ff ff70 	bl	80032d4 <uart_send_uint>

    if(decimals > 0)
 80033f4:	79fb      	ldrb	r3, [r7, #7]
 80033f6:	2b00      	cmp	r3, #0
 80033f8:	d02f      	beq.n	800345a <uart_sendFloat+0xce>
    {
        uart_sendChar_polling(hUart, '.');
 80033fa:	212e      	movs	r1, #46	@ 0x2e
 80033fc:	68f8      	ldr	r0, [r7, #12]
 80033fe:	f7ff ff2d 	bl	800325c <uart_sendChar_polling>

        // 3. 소수부 처리
        for(uint8_t i = 0; i < decimals; i++)
 8003402:	2300      	movs	r3, #0
 8003404:	76fb      	strb	r3, [r7, #27]
 8003406:	e024      	b.n	8003452 <uart_sendFloat+0xc6>
        {
            fracPart *= 10.0f;
 8003408:	edd7 7a07 	vldr	s15, [r7, #28]
 800340c:	eeb2 7a04 	vmov.f32	s14, #36	@ 0x41200000  10.0
 8003410:	ee67 7a87 	vmul.f32	s15, s15, s14
 8003414:	edc7 7a07 	vstr	s15, [r7, #28]
            uint8_t digit = (uint8_t)fracPart;
 8003418:	edd7 7a07 	vldr	s15, [r7, #28]
 800341c:	eefc 7ae7 	vcvt.u32.f32	s15, s15
 8003420:	edc7 7a00 	vstr	s15, [r7]
 8003424:	783b      	ldrb	r3, [r7, #0]
 8003426:	74fb      	strb	r3, [r7, #19]
            uart_sendChar_polling(hUart, (char)(digit + '0'));
 8003428:	7cfb      	ldrb	r3, [r7, #19]
 800342a:	3330      	adds	r3, #48	@ 0x30
 800342c:	b2db      	uxtb	r3, r3
 800342e:	4619      	mov	r1, r3
 8003430:	68f8      	ldr	r0, [r7, #12]
 8003432:	f7ff ff13 	bl	800325c <uart_sendChar_polling>
            fracPart -= (float)digit; // 소수부에서 해당 자리수 제거
 8003436:	7cfb      	ldrb	r3, [r7, #19]
 8003438:	ee07 3a90 	vmov	s15, r3
 800343c:	eef8 7a67 	vcvt.f32.u32	s15, s15
 8003440:	ed97 7a07 	vldr	s14, [r7, #28]
 8003444:	ee77 7a67 	vsub.f32	s15, s14, s15
 8003448:	edc7 7a07 	vstr	s15, [r7, #28]
        for(uint8_t i = 0; i < decimals; i++)
 800344c:	7efb      	ldrb	r3, [r7, #27]
 800344e:	3301      	adds	r3, #1
 8003450:	76fb      	strb	r3, [r7, #27]
 8003452:	7efa      	ldrb	r2, [r7, #27]
 8003454:	79fb      	ldrb	r3, [r7, #7]
 8003456:	429a      	cmp	r2, r3
 8003458:	d3d6      	bcc.n	8003408 <uart_sendFloat+0x7c>
        }
    }
}
 800345a:	bf00      	nop
 800345c:	3720      	adds	r7, #32
 800345e:	46bd      	mov	sp, r7
 8003460:	bd80      	pop	{r7, pc}
	...

08003464 <uart_debug_sendStr_polling>:
{
    uart_sendFloat(&uart3_handler, val, decimals);
}

void uart_debug_sendStr_polling(char* str, uint32_t len)
{
 8003464:	b580      	push	{r7, lr}
 8003466:	b082      	sub	sp, #8
 8003468:	af00      	add	r7, sp, #0
 800346a:	6078      	str	r0, [r7, #4]
 800346c:	6039      	str	r1, [r7, #0]
    uart_sendStr_polling(&uart2_handler, str, len);
 800346e:	683a      	ldr	r2, [r7, #0]
 8003470:	6879      	ldr	r1, [r7, #4]
 8003472:	4803      	ldr	r0, [pc, #12]	@ (8003480 <uart_debug_sendStr_polling+0x1c>)
 8003474:	f7ff ff0a 	bl	800328c <uart_sendStr_polling>
}
 8003478:	bf00      	nop
 800347a:	3708      	adds	r7, #8
 800347c:	46bd      	mov	sp, r7
 800347e:	bd80      	pop	{r7, pc}
 8003480:	200002bc 	.word	0x200002bc

08003484 <uart_debug_sendInt_polling>:

void uart_debug_sendInt_polling(int val)
{
 8003484:	b580      	push	{r7, lr}
 8003486:	b082      	sub	sp, #8
 8003488:	af00      	add	r7, sp, #0
 800348a:	6078      	str	r0, [r7, #4]
	uart_send_int(&uart2_handler, val);
 800348c:	6879      	ldr	r1, [r7, #4]
 800348e:	4803      	ldr	r0, [pc, #12]	@ (800349c <uart_debug_sendInt_polling+0x18>)
 8003490:	f7ff ff64 	bl	800335c <uart_send_int>
}
 8003494:	bf00      	nop
 8003496:	3708      	adds	r7, #8
 8003498:	46bd      	mov	sp, r7
 800349a:	bd80      	pop	{r7, pc}
 800349c:	200002bc 	.word	0x200002bc

080034a0 <uart_debug_sendFloat_polling>:

void uart_debug_sendFloat_polling(float val, uint8_t decimals)
{
 80034a0:	b580      	push	{r7, lr}
 80034a2:	b082      	sub	sp, #8
 80034a4:	af00      	add	r7, sp, #0
 80034a6:	ed87 0a01 	vstr	s0, [r7, #4]
 80034aa:	4603      	mov	r3, r0
 80034ac:	70fb      	strb	r3, [r7, #3]
    uart_sendFloat(&uart2_handler, val, decimals);
 80034ae:	78fb      	ldrb	r3, [r7, #3]
 80034b0:	4619      	mov	r1, r3
 80034b2:	ed97 0a01 	vldr	s0, [r7, #4]
 80034b6:	4803      	ldr	r0, [pc, #12]	@ (80034c4 <uart_debug_sendFloat_polling+0x24>)
 80034b8:	f7ff ff68 	bl	800338c <uart_sendFloat>
}
 80034bc:	bf00      	nop
 80034be:	3708      	adds	r7, #8
 80034c0:	46bd      	mov	sp, r7
 80034c2:	bd80      	pop	{r7, pc}
 80034c4:	200002bc 	.word	0x200002bc

080034c8 <utils_LPF_get_Alpha>:
/*----------------------------*/

typLpf_handle vLPF_phaseCurr_obj, vLPF_RPM_obj;

static float utils_LPF_get_Alpha(float sampling_t, uint32_t cutOff_f)
{
 80034c8:	b480      	push	{r7}
 80034ca:	b087      	sub	sp, #28
 80034cc:	af00      	add	r7, sp, #0
 80034ce:	ed87 0a01 	vstr	s0, [r7, #4]
 80034d2:	6038      	str	r0, [r7, #0]
	float result, temp1, temp2;
	temp1 = 2. * PI * cutOff_f * sampling_t;
 80034d4:	683b      	ldr	r3, [r7, #0]
 80034d6:	ee07 3a90 	vmov	s15, r3
 80034da:	eeb8 7b67 	vcvt.f64.u32	d7, s15
 80034de:	ed9f 6b14 	vldr	d6, [pc, #80]	@ 8003530 <utils_LPF_get_Alpha+0x68>
 80034e2:	ee27 6b06 	vmul.f64	d6, d7, d6
 80034e6:	edd7 7a01 	vldr	s15, [r7, #4]
 80034ea:	eeb7 7ae7 	vcvt.f64.f32	d7, s15
 80034ee:	ee26 7b07 	vmul.f64	d7, d6, d7
 80034f2:	eef7 7bc7 	vcvt.f32.f64	s15, d7
 80034f6:	edc7 7a05 	vstr	s15, [r7, #20]
	temp2 = 1. + temp1;
 80034fa:	edd7 7a05 	vldr	s15, [r7, #20]
 80034fe:	eeb7 7a00 	vmov.f32	s14, #112	@ 0x3f800000  1.0
 8003502:	ee77 7a87 	vadd.f32	s15, s15, s14
 8003506:	edc7 7a04 	vstr	s15, [r7, #16]
	result = temp1 / temp2;
 800350a:	edd7 6a05 	vldr	s13, [r7, #20]
 800350e:	ed97 7a04 	vldr	s14, [r7, #16]
 8003512:	eec6 7a87 	vdiv.f32	s15, s13, s14
 8003516:	edc7 7a03 	vstr	s15, [r7, #12]
	return result;
 800351a:	68fb      	ldr	r3, [r7, #12]
 800351c:	ee07 3a90 	vmov	s15, r3
}
 8003520:	eeb0 0a67 	vmov.f32	s0, s15
 8003524:	371c      	adds	r7, #28
 8003526:	46bd      	mov	sp, r7
 8003528:	f85d 7b04 	ldr.w	r7, [sp], #4
 800352c:	4770      	bx	lr
 800352e:	bf00      	nop
 8003530:	00000000 	.word	0x00000000
 8003534:	401921fa 	.word	0x401921fa

08003538 <utils_LPF_RPM_init>:

void utils_LPF_RPM_init(void)
{
 8003538:	b580      	push	{r7, lr}
 800353a:	af00      	add	r7, sp, #0
	vLPF_RPM_obj.cutoff_hz = UTILS_RPM_CUTOFF_HZ;
 800353c:	4b0c      	ldr	r3, [pc, #48]	@ (8003570 <utils_LPF_RPM_init+0x38>)
 800353e:	f04f 527e 	mov.w	r2, #1065353216	@ 0x3f800000
 8003542:	601a      	str	r2, [r3, #0]
	vLPF_RPM_obj.prev_out = 0.0f;
 8003544:	4b0a      	ldr	r3, [pc, #40]	@ (8003570 <utils_LPF_RPM_init+0x38>)
 8003546:	f04f 0200 	mov.w	r2, #0
 800354a:	605a      	str	r2, [r3, #4]
	vLPF_RPM_obj.Fx_coeff = utils_LPF_get_Alpha(UTILS_SAMPLING_TIME_SEC, UTILS_RPM_CUTOFF_HZ);
 800354c:	2001      	movs	r0, #1
 800354e:	ed9f 0a09 	vldr	s0, [pc, #36]	@ 8003574 <utils_LPF_RPM_init+0x3c>
 8003552:	f7ff ffb9 	bl	80034c8 <utils_LPF_get_Alpha>
 8003556:	eef0 7a40 	vmov.f32	s15, s0
 800355a:	4b05      	ldr	r3, [pc, #20]	@ (8003570 <utils_LPF_RPM_init+0x38>)
 800355c:	edc3 7a02 	vstr	s15, [r3, #8]
	vLPF_RPM_obj.is_1stRun = true;
 8003560:	4b03      	ldr	r3, [pc, #12]	@ (8003570 <utils_LPF_RPM_init+0x38>)
 8003562:	2201      	movs	r2, #1
 8003564:	731a      	strb	r2, [r3, #12]
	vLPF_RPM_obj.is_initialized = true;
 8003566:	4b02      	ldr	r3, [pc, #8]	@ (8003570 <utils_LPF_RPM_init+0x38>)
 8003568:	2201      	movs	r2, #1
 800356a:	735a      	strb	r2, [r3, #13]
}
 800356c:	bf00      	nop
 800356e:	bd80      	pop	{r7, pc}
 8003570:	200002dc 	.word	0x200002dc
 8003574:	3851b717 	.word	0x3851b717

08003578 <utils_LPF_phaseCurr_init>:

void utils_LPF_phaseCurr_init(void)
{
 8003578:	b580      	push	{r7, lr}
 800357a:	af00      	add	r7, sp, #0
	vLPF_phaseCurr_obj.cutoff_hz = UTILS_PHASE_CURR_CUTOFF_HZ;
 800357c:	4b0c      	ldr	r3, [pc, #48]	@ (80035b0 <utils_LPF_phaseCurr_init+0x38>)
 800357e:	4a0d      	ldr	r2, [pc, #52]	@ (80035b4 <utils_LPF_phaseCurr_init+0x3c>)
 8003580:	601a      	str	r2, [r3, #0]
	vLPF_phaseCurr_obj.prev_out = 0.0f;
 8003582:	4b0b      	ldr	r3, [pc, #44]	@ (80035b0 <utils_LPF_phaseCurr_init+0x38>)
 8003584:	f04f 0200 	mov.w	r2, #0
 8003588:	605a      	str	r2, [r3, #4]
	vLPF_phaseCurr_obj.Fx_coeff = utils_LPF_get_Alpha(UTILS_SAMPLING_TIME_SEC, UTILS_PHASE_CURR_CUTOFF_HZ);
 800358a:	f44f 70fa 	mov.w	r0, #500	@ 0x1f4
 800358e:	ed9f 0a0a 	vldr	s0, [pc, #40]	@ 80035b8 <utils_LPF_phaseCurr_init+0x40>
 8003592:	f7ff ff99 	bl	80034c8 <utils_LPF_get_Alpha>
 8003596:	eef0 7a40 	vmov.f32	s15, s0
 800359a:	4b05      	ldr	r3, [pc, #20]	@ (80035b0 <utils_LPF_phaseCurr_init+0x38>)
 800359c:	edc3 7a02 	vstr	s15, [r3, #8]
	vLPF_phaseCurr_obj.is_1stRun = true;
 80035a0:	4b03      	ldr	r3, [pc, #12]	@ (80035b0 <utils_LPF_phaseCurr_init+0x38>)
 80035a2:	2201      	movs	r2, #1
 80035a4:	731a      	strb	r2, [r3, #12]
	vLPF_phaseCurr_obj.is_initialized = true;
 80035a6:	4b02      	ldr	r3, [pc, #8]	@ (80035b0 <utils_LPF_phaseCurr_init+0x38>)
 80035a8:	2201      	movs	r2, #1
 80035aa:	735a      	strb	r2, [r3, #13]
}
 80035ac:	bf00      	nop
 80035ae:	bd80      	pop	{r7, pc}
 80035b0:	200002cc 	.word	0x200002cc
 80035b4:	43fa0000 	.word	0x43fa0000
 80035b8:	3851b717 	.word	0x3851b717

080035bc <utils_LPF_RPM_filter>:

float utils_LPF_RPM_filter(float input)
{
 80035bc:	b480      	push	{r7}
 80035be:	b083      	sub	sp, #12
 80035c0:	af00      	add	r7, sp, #0
 80035c2:	ed87 0a01 	vstr	s0, [r7, #4]
	if (vLPF_RPM_obj.is_initialized == false)
 80035c6:	4b20      	ldr	r3, [pc, #128]	@ (8003648 <utils_LPF_RPM_filter+0x8c>)
 80035c8:	7b5b      	ldrb	r3, [r3, #13]
 80035ca:	f083 0301 	eor.w	r3, r3, #1
 80035ce:	b2db      	uxtb	r3, r3
 80035d0:	2b00      	cmp	r3, #0
 80035d2:	d002      	beq.n	80035da <utils_LPF_RPM_filter+0x1e>
	{
		return 0.0f;
 80035d4:	f04f 0300 	mov.w	r3, #0
 80035d8:	e02d      	b.n	8003636 <utils_LPF_RPM_filter+0x7a>
	}
	else if (vLPF_RPM_obj.is_1stRun == true)
 80035da:	4b1b      	ldr	r3, [pc, #108]	@ (8003648 <utils_LPF_RPM_filter+0x8c>)
 80035dc:	7b1b      	ldrb	r3, [r3, #12]
 80035de:	2b00      	cmp	r3, #0
 80035e0:	d007      	beq.n	80035f2 <utils_LPF_RPM_filter+0x36>
	{
		vLPF_RPM_obj.prev_out = input;
 80035e2:	4a19      	ldr	r2, [pc, #100]	@ (8003648 <utils_LPF_RPM_filter+0x8c>)
 80035e4:	687b      	ldr	r3, [r7, #4]
 80035e6:	6053      	str	r3, [r2, #4]
		vLPF_RPM_obj.is_1stRun = false;
 80035e8:	4b17      	ldr	r3, [pc, #92]	@ (8003648 <utils_LPF_RPM_filter+0x8c>)
 80035ea:	2200      	movs	r2, #0
 80035ec:	731a      	strb	r2, [r3, #12]
		return input;
 80035ee:	687b      	ldr	r3, [r7, #4]
 80035f0:	e021      	b.n	8003636 <utils_LPF_RPM_filter+0x7a>
	}
	else
	{
		vLPF_RPM_obj.prev_out = (1. - vLPF_RPM_obj.Fx_coeff) * vLPF_RPM_obj.prev_out + (vLPF_RPM_obj.Fx_coeff * input);
 80035f2:	4b15      	ldr	r3, [pc, #84]	@ (8003648 <utils_LPF_RPM_filter+0x8c>)
 80035f4:	edd3 7a02 	vldr	s15, [r3, #8]
 80035f8:	eeb7 7ae7 	vcvt.f64.f32	d7, s15
 80035fc:	eeb7 6b00 	vmov.f64	d6, #112	@ 0x3f800000  1.0
 8003600:	ee36 6b47 	vsub.f64	d6, d6, d7
 8003604:	4b10      	ldr	r3, [pc, #64]	@ (8003648 <utils_LPF_RPM_filter+0x8c>)
 8003606:	edd3 7a01 	vldr	s15, [r3, #4]
 800360a:	eeb7 7ae7 	vcvt.f64.f32	d7, s15
 800360e:	ee26 6b07 	vmul.f64	d6, d6, d7
 8003612:	4b0d      	ldr	r3, [pc, #52]	@ (8003648 <utils_LPF_RPM_filter+0x8c>)
 8003614:	ed93 7a02 	vldr	s14, [r3, #8]
 8003618:	edd7 7a01 	vldr	s15, [r7, #4]
 800361c:	ee67 7a27 	vmul.f32	s15, s14, s15
 8003620:	eeb7 7ae7 	vcvt.f64.f32	d7, s15
 8003624:	ee36 7b07 	vadd.f64	d7, d6, d7
 8003628:	eef7 7bc7 	vcvt.f32.f64	s15, d7
 800362c:	4b06      	ldr	r3, [pc, #24]	@ (8003648 <utils_LPF_RPM_filter+0x8c>)
 800362e:	edc3 7a01 	vstr	s15, [r3, #4]
		return vLPF_RPM_obj.prev_out;
 8003632:	4b05      	ldr	r3, [pc, #20]	@ (8003648 <utils_LPF_RPM_filter+0x8c>)
 8003634:	685b      	ldr	r3, [r3, #4]
	}
}
 8003636:	ee07 3a90 	vmov	s15, r3
 800363a:	eeb0 0a67 	vmov.f32	s0, s15
 800363e:	370c      	adds	r7, #12
 8003640:	46bd      	mov	sp, r7
 8003642:	f85d 7b04 	ldr.w	r7, [sp], #4
 8003646:	4770      	bx	lr
 8003648:	200002dc 	.word	0x200002dc

0800364c <utils_LPF_phaseCurr_filter>:

float utils_LPF_phaseCurr_filter(float input)
{
 800364c:	b480      	push	{r7}
 800364e:	b083      	sub	sp, #12
 8003650:	af00      	add	r7, sp, #0
 8003652:	ed87 0a01 	vstr	s0, [r7, #4]
	if (vLPF_phaseCurr_obj.is_initialized == false)
 8003656:	4b20      	ldr	r3, [pc, #128]	@ (80036d8 <utils_LPF_phaseCurr_filter+0x8c>)
 8003658:	7b5b      	ldrb	r3, [r3, #13]
 800365a:	f083 0301 	eor.w	r3, r3, #1
 800365e:	b2db      	uxtb	r3, r3
 8003660:	2b00      	cmp	r3, #0
 8003662:	d002      	beq.n	800366a <utils_LPF_phaseCurr_filter+0x1e>
	{
		return 0.0f;
 8003664:	f04f 0300 	mov.w	r3, #0
 8003668:	e02d      	b.n	80036c6 <utils_LPF_phaseCurr_filter+0x7a>
	}
	else if (vLPF_phaseCurr_obj.is_1stRun == true)
 800366a:	4b1b      	ldr	r3, [pc, #108]	@ (80036d8 <utils_LPF_phaseCurr_filter+0x8c>)
 800366c:	7b1b      	ldrb	r3, [r3, #12]
 800366e:	2b00      	cmp	r3, #0
 8003670:	d007      	beq.n	8003682 <utils_LPF_phaseCurr_filter+0x36>
	{
		vLPF_phaseCurr_obj.prev_out = input;
 8003672:	4a19      	ldr	r2, [pc, #100]	@ (80036d8 <utils_LPF_phaseCurr_filter+0x8c>)
 8003674:	687b      	ldr	r3, [r7, #4]
 8003676:	6053      	str	r3, [r2, #4]
		vLPF_phaseCurr_obj.is_1stRun = false;
 8003678:	4b17      	ldr	r3, [pc, #92]	@ (80036d8 <utils_LPF_phaseCurr_filter+0x8c>)
 800367a:	2200      	movs	r2, #0
 800367c:	731a      	strb	r2, [r3, #12]
		return input;
 800367e:	687b      	ldr	r3, [r7, #4]
 8003680:	e021      	b.n	80036c6 <utils_LPF_phaseCurr_filter+0x7a>
	}
	else
	{
		vLPF_phaseCurr_obj.prev_out = (1. - vLPF_phaseCurr_obj.Fx_coeff) * vLPF_phaseCurr_obj.prev_out + (vLPF_phaseCurr_obj.Fx_coeff * input);
 8003682:	4b15      	ldr	r3, [pc, #84]	@ (80036d8 <utils_LPF_phaseCurr_filter+0x8c>)
 8003684:	edd3 7a02 	vldr	s15, [r3, #8]
 8003688:	eeb7 7ae7 	vcvt.f64.f32	d7, s15
 800368c:	eeb7 6b00 	vmov.f64	d6, #112	@ 0x3f800000  1.0
 8003690:	ee36 6b47 	vsub.f64	d6, d6, d7
 8003694:	4b10      	ldr	r3, [pc, #64]	@ (80036d8 <utils_LPF_phaseCurr_filter+0x8c>)
 8003696:	edd3 7a01 	vldr	s15, [r3, #4]
 800369a:	eeb7 7ae7 	vcvt.f64.f32	d7, s15
 800369e:	ee26 6b07 	vmul.f64	d6, d6, d7
 80036a2:	4b0d      	ldr	r3, [pc, #52]	@ (80036d8 <utils_LPF_phaseCurr_filter+0x8c>)
 80036a4:	ed93 7a02 	vldr	s14, [r3, #8]
 80036a8:	edd7 7a01 	vldr	s15, [r7, #4]
 80036ac:	ee67 7a27 	vmul.f32	s15, s14, s15
 80036b0:	eeb7 7ae7 	vcvt.f64.f32	d7, s15
 80036b4:	ee36 7b07 	vadd.f64	d7, d6, d7
 80036b8:	eef7 7bc7 	vcvt.f32.f64	s15, d7
 80036bc:	4b06      	ldr	r3, [pc, #24]	@ (80036d8 <utils_LPF_phaseCurr_filter+0x8c>)
 80036be:	edc3 7a01 	vstr	s15, [r3, #4]
		return vLPF_phaseCurr_obj.prev_out;
 80036c2:	4b05      	ldr	r3, [pc, #20]	@ (80036d8 <utils_LPF_phaseCurr_filter+0x8c>)
 80036c4:	685b      	ldr	r3, [r3, #4]
	}
}
 80036c6:	ee07 3a90 	vmov	s15, r3
 80036ca:	eeb0 0a67 	vmov.f32	s0, s15
 80036ce:	370c      	adds	r7, #12
 80036d0:	46bd      	mov	sp, r7
 80036d2:	f85d 7b04 	ldr.w	r7, [sp], #4
 80036d6:	4770      	bx	lr
 80036d8:	200002cc 	.word	0x200002cc

080036dc <utils_ramp2Tgt>:
// Ramp Func
/*----------------------------*/

// 한번에 너무 급격히 변화하지 않고 점진적으로 지령값에 도달하도록 처리하는 함수
void utils_ramp2Tgt(float command, float *output, float maxUnit)
{
 80036dc:	b480      	push	{r7}
 80036de:	b085      	sub	sp, #20
 80036e0:	af00      	add	r7, sp, #0
 80036e2:	ed87 0a03 	vstr	s0, [r7, #12]
 80036e6:	60b8      	str	r0, [r7, #8]
 80036e8:	edc7 0a01 	vstr	s1, [r7, #4]
    if(command > *output)
 80036ec:	68bb      	ldr	r3, [r7, #8]
 80036ee:	edd3 7a00 	vldr	s15, [r3]
 80036f2:	ed97 7a03 	vldr	s14, [r7, #12]
 80036f6:	eeb4 7ae7 	vcmpe.f32	s14, s15
 80036fa:	eef1 fa10 	vmrs	APSR_nzcv, fpscr
 80036fe:	dd18      	ble.n	8003732 <utils_ramp2Tgt+0x56>
    {
        *output += maxUnit;
 8003700:	68bb      	ldr	r3, [r7, #8]
 8003702:	ed93 7a00 	vldr	s14, [r3]
 8003706:	edd7 7a01 	vldr	s15, [r7, #4]
 800370a:	ee77 7a27 	vadd.f32	s15, s14, s15
 800370e:	68bb      	ldr	r3, [r7, #8]
 8003710:	edc3 7a00 	vstr	s15, [r3]

        if(*output > command)   *output = command;
 8003714:	68bb      	ldr	r3, [r7, #8]
 8003716:	edd3 7a00 	vldr	s15, [r3]
 800371a:	ed97 7a03 	vldr	s14, [r7, #12]
 800371e:	eeb4 7ae7 	vcmpe.f32	s14, s15
 8003722:	eef1 fa10 	vmrs	APSR_nzcv, fpscr
 8003726:	d400      	bmi.n	800372a <utils_ramp2Tgt+0x4e>
    }
    else
    {
        // do nothing
    }
 8003728:	e026      	b.n	8003778 <utils_ramp2Tgt+0x9c>
        if(*output > command)   *output = command;
 800372a:	68bb      	ldr	r3, [r7, #8]
 800372c:	68fa      	ldr	r2, [r7, #12]
 800372e:	601a      	str	r2, [r3, #0]
 8003730:	e022      	b.n	8003778 <utils_ramp2Tgt+0x9c>
    else if(command < *output)
 8003732:	68bb      	ldr	r3, [r7, #8]
 8003734:	edd3 7a00 	vldr	s15, [r3]
 8003738:	ed97 7a03 	vldr	s14, [r7, #12]
 800373c:	eeb4 7ae7 	vcmpe.f32	s14, s15
 8003740:	eef1 fa10 	vmrs	APSR_nzcv, fpscr
 8003744:	d400      	bmi.n	8003748 <utils_ramp2Tgt+0x6c>
 8003746:	e017      	b.n	8003778 <utils_ramp2Tgt+0x9c>
        *output -= maxUnit;
 8003748:	68bb      	ldr	r3, [r7, #8]
 800374a:	ed93 7a00 	vldr	s14, [r3]
 800374e:	edd7 7a01 	vldr	s15, [r7, #4]
 8003752:	ee77 7a67 	vsub.f32	s15, s14, s15
 8003756:	68bb      	ldr	r3, [r7, #8]
 8003758:	edc3 7a00 	vstr	s15, [r3]
        if(*output < command)   *output = command;
 800375c:	68bb      	ldr	r3, [r7, #8]
 800375e:	edd3 7a00 	vldr	s15, [r3]
 8003762:	ed97 7a03 	vldr	s14, [r7, #12]
 8003766:	eeb4 7ae7 	vcmpe.f32	s14, s15
 800376a:	eef1 fa10 	vmrs	APSR_nzcv, fpscr
 800376e:	dc00      	bgt.n	8003772 <utils_ramp2Tgt+0x96>
 8003770:	e002      	b.n	8003778 <utils_ramp2Tgt+0x9c>
        if(*output < command)   *output = command;
 8003772:	68bb      	ldr	r3, [r7, #8]
 8003774:	68fa      	ldr	r2, [r7, #12]
 8003776:	601a      	str	r2, [r3, #0]
 8003778:	bf00      	nop
 800377a:	3714      	adds	r7, #20
 800377c:	46bd      	mov	sp, r7
 800377e:	f85d 7b04 	ldr.w	r7, [sp], #4
 8003782:	4770      	bx	lr

08003784 <Reset_Handler>:

    .section  .text.Reset_Handler
  .weak  Reset_Handler
  .type  Reset_Handler, %function
Reset_Handler:  
  ldr   sp, =_estack      /* set stack pointer */
 8003784:	f8df d034 	ldr.w	sp, [pc, #52]	@ 80037bc <LoopFillZerobss+0xe>

/* Call the clock system initialization function.*/
  bl  SystemInit   
 8003788:	f7ff fa1e 	bl	8002bc8 <SystemInit>

/* Copy the data segment initializers from flash to SRAM */  
  ldr r0, =_sdata
 800378c:	480c      	ldr	r0, [pc, #48]	@ (80037c0 <LoopFillZerobss+0x12>)
  ldr r1, =_edata
 800378e:	490d      	ldr	r1, [pc, #52]	@ (80037c4 <LoopFillZerobss+0x16>)
  ldr r2, =_sidata
 8003790:	4a0d      	ldr	r2, [pc, #52]	@ (80037c8 <LoopFillZerobss+0x1a>)
  movs r3, #0
 8003792:	2300      	movs	r3, #0
  b LoopCopyDataInit
 8003794:	e002      	b.n	800379c <LoopCopyDataInit>

08003796 <CopyDataInit>:

CopyDataInit:
  ldr r4, [r2, r3]
 8003796:	58d4      	ldr	r4, [r2, r3]
  str r4, [r0, r3]
 8003798:	50c4      	str	r4, [r0, r3]
  adds r3, r3, #4
 800379a:	3304      	adds	r3, #4

0800379c <LoopCopyDataInit>:

LoopCopyDataInit:
  adds r4, r0, r3
 800379c:	18c4      	adds	r4, r0, r3
  cmp r4, r1
 800379e:	428c      	cmp	r4, r1
  bcc CopyDataInit
 80037a0:	d3f9      	bcc.n	8003796 <CopyDataInit>
  
/* Zero fill the bss segment. */
  ldr r2, =_sbss
 80037a2:	4a0a      	ldr	r2, [pc, #40]	@ (80037cc <LoopFillZerobss+0x1e>)
  ldr r4, =_ebss
 80037a4:	4c0a      	ldr	r4, [pc, #40]	@ (80037d0 <LoopFillZerobss+0x22>)
  movs r3, #0
 80037a6:	2300      	movs	r3, #0
  b LoopFillZerobss
 80037a8:	e001      	b.n	80037ae <LoopFillZerobss>

080037aa <FillZerobss>:

FillZerobss:
  str  r3, [r2]
 80037aa:	6013      	str	r3, [r2, #0]
  adds r2, r2, #4
 80037ac:	3204      	adds	r2, #4

080037ae <LoopFillZerobss>:

LoopFillZerobss:
  cmp r2, r4
 80037ae:	42a2      	cmp	r2, r4
  bcc FillZerobss
 80037b0:	d3fb      	bcc.n	80037aa <FillZerobss>
  
/* Call static constructors */
    bl __libc_init_array
 80037b2:	f000 f811 	bl	80037d8 <__libc_init_array>
/* Call the application's entry point.*/
  bl  main
 80037b6:	f7ff f855 	bl	8002864 <main>
  bx  lr    
 80037ba:	4770      	bx	lr
  ldr   sp, =_estack      /* set stack pointer */
 80037bc:	20080000 	.word	0x20080000
  ldr r0, =_sdata
 80037c0:	20000000 	.word	0x20000000
  ldr r1, =_edata
 80037c4:	20000000 	.word	0x20000000
  ldr r2, =_sidata
 80037c8:	08003878 	.word	0x08003878
  ldr r2, =_sbss
 80037cc:	20000000 	.word	0x20000000
  ldr r4, =_ebss
 80037d0:	200002ec 	.word	0x200002ec

080037d4 <ADC_IRQHandler>:
 * @retval None       
*/
    .section  .text.Default_Handler,"ax",%progbits
Default_Handler:
Infinite_Loop:
  b  Infinite_Loop
 80037d4:	e7fe      	b.n	80037d4 <ADC_IRQHandler>
	...

080037d8 <__libc_init_array>:
 80037d8:	b570      	push	{r4, r5, r6, lr}
 80037da:	4d0d      	ldr	r5, [pc, #52]	@ (8003810 <__libc_init_array+0x38>)
 80037dc:	4c0d      	ldr	r4, [pc, #52]	@ (8003814 <__libc_init_array+0x3c>)
 80037de:	1b64      	subs	r4, r4, r5
 80037e0:	10a4      	asrs	r4, r4, #2
 80037e2:	2600      	movs	r6, #0
 80037e4:	42a6      	cmp	r6, r4
 80037e6:	d109      	bne.n	80037fc <__libc_init_array+0x24>
 80037e8:	4d0b      	ldr	r5, [pc, #44]	@ (8003818 <__libc_init_array+0x40>)
 80037ea:	4c0c      	ldr	r4, [pc, #48]	@ (800381c <__libc_init_array+0x44>)
 80037ec:	f000 f818 	bl	8003820 <_init>
 80037f0:	1b64      	subs	r4, r4, r5
 80037f2:	10a4      	asrs	r4, r4, #2
 80037f4:	2600      	movs	r6, #0
 80037f6:	42a6      	cmp	r6, r4
 80037f8:	d105      	bne.n	8003806 <__libc_init_array+0x2e>
 80037fa:	bd70      	pop	{r4, r5, r6, pc}
 80037fc:	f855 3b04 	ldr.w	r3, [r5], #4
 8003800:	4798      	blx	r3
 8003802:	3601      	adds	r6, #1
 8003804:	e7ee      	b.n	80037e4 <__libc_init_array+0xc>
 8003806:	f855 3b04 	ldr.w	r3, [r5], #4
 800380a:	4798      	blx	r3
 800380c:	3601      	adds	r6, #1
 800380e:	e7f2      	b.n	80037f6 <__libc_init_array+0x1e>
 8003810:	08003870 	.word	0x08003870
 8003814:	08003870 	.word	0x08003870
 8003818:	08003870 	.word	0x08003870
 800381c:	08003874 	.word	0x08003874

08003820 <_init>:
 8003820:	b5f8      	push	{r3, r4, r5, r6, r7, lr}
 8003822:	bf00      	nop
 8003824:	bcf8      	pop	{r3, r4, r5, r6, r7}
 8003826:	bc08      	pop	{r3}
 8003828:	469e      	mov	lr, r3
 800382a:	4770      	bx	lr

0800382c <_fini>:
 800382c:	b5f8      	push	{r3, r4, r5, r6, r7, lr}
 800382e:	bf00      	nop
 8003830:	bcf8      	pop	{r3, r4, r5, r6, r7}
 8003832:	bc08      	pop	{r3}
 8003834:	469e      	mov	lr, r3
 8003836:	4770      	bx	lr
